Component: ARM Compiler 5.06 update 7 (build 960) Tool: armlink [4d3601]

==============================================================================

Section Cross References

    gd32f30x_it.o(.text) refers to tasks.o(.text) for xTaskGetSchedulerState
    gd32f30x_it.o(.text) refers to port.o(.text) for xPortSysTickHandler
    main.o(.text) refers to gd32f30x_dbg.o(.text) for dbg_periph_enable
    main.o(.text) refers to gd32f30x_rcu.o(.text) for rcu_flag_get
    main.o(.text) refers to printfa.o(i.__0printf) for __2printf
    main.o(.text) refers to gd32f30x_fwdgt.o(.text) for fwdgt_config
    main.o(.text) refers to queue.o(.text) for xQueueGenericCreate
    main.o(.text) refers to api_adc.o(.text) for adc_sample_all
    main.o(.text) refers to chassisctrl.o(.text) for ChassisCtrl
    main.o(.text) refers to msghndlr.o(.text) for MsgCoreHndlr
    main.o(.text) refers to bsp_i2c.o(.text) for i2c_int
    main.o(.text) refers to port.o(.text) for vPortEnterCritical
    main.o(.text) refers to tasks.o(.text) for xTaskCreate
    main.o(.text) refers to systick.o(.text) for bsp_systick_config
    main.o(.text) refers to gd32f30x_misc.o(.text) for nvic_priority_group_set
    main.o(.text) refers to gd32f30x_platform.o(.text) for platform_init
    main.o(.text) refers to bsp_uartcomm.o(.text) for UART_init
    main.o(.text) refers to bsp_gpio.o(.text) for GPIO_bspInit
    main.o(.text) refers to api_utc.o(.text) for currentSecsSinceEpoch
    main.o(.text) refers to api_cpu.o(.text) for GetBmcFirmwareVersion
    main.o(.text) refers to main.o(.data) for g_debugLevel
    main.o(.text) refers to api_sensor.o(.text) for Dev_Task
    main.o(.text) refers to shell_port.o(.bss) for shell
    main.o(.text) refers to shell.o(.text) for shellTask
    main.o(.data) refers to main.o(.conststring) for .conststring
    systick.o(.text) refers to system_gd32f30x.o(.data) for SystemCoreClock
    systick.o(.text) refers to main.o(.data) for g_localtime
    api_subdevices.o(.text) refers to bsp_gpio.o(.text) for get_board_addr
    api_subdevices.o(.text) refers to printfa.o(i.__0printf) for __2printf
    api_subdevices.o(.text) refers to api_sensor.o(.text) for api_getDevHandler
    api_subdevices.o(.text) refers to strlen.o(.text) for strlen
    api_subdevices.o(.text) refers to bsp_uartcomm.o(.text) for UART_sendData
    api_subdevices.o(.text) refers to tasks.o(.text) for vTaskDelay
    api_subdevices.o(.text) refers to timers.o(.text) for xTimerGenericCommand
    api_subdevices.o(.text) refers to cjson.o(.text) for cJSON_CreateObject
    api_subdevices.o(.text) refers to heap_4.o(.text) for xPortGetFreeHeapSize
    api_subdevices.o(.text) refers to memseta.o(.text) for __aeabi_memclr4
    api_subdevices.o(.text) refers to memcpya.o(.text) for __aeabi_memcpy
    api_subdevices.o(.text) refers to strcat.o(.text) for strcat
    api_subdevices.o(.text) refers to api_subdevices.o(.constdata) for g_SubDeviceConfigName
    api_subdevices.o(.text) refers to api_subdevices.o(.bss) for g_AllModes
    api_subdevices.o(.text) refers to main.o(.data) for g_debugLevel
    api_subdevices.o(.text) refers to api_subdevices.o(.data) for pSubDeviceSelf
    api_subdevices.o(.text) refers to printfa.o(i.__0sprintf) for __2sprintf
    api_subdevices.o(.text) refers to f2d.o(.text) for __aeabi_f2d
    api_subdevices.o(.text) refers to ipmi_common.o(.text) for CalculateCheckSum
    api_subdevices.o(.text) refers to sensor.o(.text) for GetSensorReading
    api_subdevices.o(.text) refers to msghndlr.o(.text) for SendMsgAndWait
    api_subdevices.o(.constdata) refers to api_subdevices.o(.conststring) for .conststring
    api_subdevices.o(.data) refers to api_subdevices.o(.conststring) for .conststring
    dev_main.o(.text) refers to tasks.o(.text) for vTaskDelay
    dev_main.o(.text) refers to printfa.o(i.__0printf) for __2printf
    dev_main.o(.text) refers to main.o(.data) for g_debugLevel
    dev_main.o(.constdata) refers to dev_main.o(.conststring) for .conststring
    dev_main.o(.constdata) refers to dev_main.o(.bss) for g_sensorVal_main
    dev_main.o(.constdata) refers to dev_main.o(.text) for DevTaskHandler
    dev_net.o(.constdata) refers to dev_net.o(.conststring) for .conststring
    dev_net.o(.constdata) refers to dev_net.o(.bss) for g_sensorVal_net
    dev_power.o(.constdata) refers to dev_power.o(.conststring) for .conststring
    dev_power.o(.constdata) refers to dev_power.o(.bss) for g_sensorVal_power
    dev_storage0.o(.constdata) refers to dev_storage0.o(.conststring) for .conststring
    dev_storage0.o(.constdata) refers to dev_storage0.o(.bss) for g_sensorVal_storage0
    dev_switch.o(.constdata) refers to dev_switch.o(.conststring) for .conststring
    dev_switch.o(.constdata) refers to dev_switch.o(.bss) for g_sensorVal_switch
    api_adc.o(.text) refers to bsp_adc.o(.text) for adc_init_channle
    api_adc.o(.text) refers to log.o(i.__hardfp_log) for __hardfp_log
    api_adc.o(.text) refers to f2d.o(.text) for __aeabi_f2d
    api_adc.o(.text) refers to dadd.o(.text) for __aeabi_dsub
    api_adc.o(.text) refers to dmul.o(.text) for __aeabi_dmul
    api_adc.o(.text) refers to ddiv.o(.text) for __aeabi_ddiv
    api_adc.o(.text) refers to d2f.o(.text) for __aeabi_d2f
    api_adc.o(.text) refers to api_sensor.o(.text) for api_sensorGetIPMBVal
    api_adc.o(.text) refers to memseta.o(.text) for __aeabi_memclr4
    api_adc.o(.text) refers to tasks.o(.text) for vTaskDelay
    api_adc.o(.text) refers to api_subdevices.o(.text) for SubDevice_GetMyMode
    api_adc.o(.text) refers to api_adc.o(.data) for g_pADCConfig_Handler
    api_fan.o(.text) refers to bsp_capture.o(.text) for capture_getIsValid
    api_fan.o(.text) refers to api_subdevices.o(.text) for SubDevice_GetMyMode
    api_fan.o(.text) refers to api_sensor.o(.text) for api_sensorConvertIPMBValBySensorNum
    api_fan.o(.text) refers to printfa.o(i.__0printf) for __2printf
    api_fan.o(.text) refers to timers.o(.text) for pvTimerGetTimerID
    api_fan.o(.text) refers to gd32f30x_timer.o(.text) for timer_channel_output_pulse_value_config
    api_fan.o(.text) refers to bsp_pwm.o(.text) for pwm_timer_gpio_config
    api_fan.o(.text) refers to tasks.o(.text) for xTaskGetTickCount
    api_fan.o(.text) refers to api_fan.o(.bss) for g_Fan
    api_fan.o(.text) refers to main.o(.data) for g_debugLevel
    api_fan.o(.text) refers to system_gd32f30x.o(.data) for SystemCoreClock
    api_fan.o(.text) refers to api_fan.o(.constdata) for g_pwmChannleConfig
    api_tmp.o(.text) refers to hwd1668.o(.text) for hwd1668_init
    api_tmp.o(.text) refers to printfa.o(i.__0printf) for __2printf
    api_tmp.o(.text) refers to tasks.o(.text) for vTaskDelay
    api_tmp.o(.text) refers to main.o(.data) for g_debugLevel
    api_tmp.o(.text) refers to api_tmp.o(.data) for g_temperature_raw
    api_cpu.o(.text) refers to memseta.o(.text) for __aeabi_memclr4
    api_cpu.o(.text) refers to strlen.o(.text) for strlen
    api_cpu.o(.text) refers to memcpya.o(.text) for __aeabi_memcpy
    api_cpu.o(.text) refers to atoi.o(.text) for atoi
    api_cpu.o(.text) refers to bsp_timer.o(.data) for g_time_run
    api_utc.o(.text) refers to strlen.o(.text) for strlen
    api_utc.o(.text) refers to strtok.o(.text) for strtok
    api_utc.o(.text) refers to memcpya.o(.text) for __aeabi_memcpy4
    api_utc.o(.text) refers to strcmp.o(.text) for strcmp
    api_utc.o(.text) refers to printfa.o(i.__0printf) for __2printf
    api_utc.o(.text) refers to atoi.o(.text) for atoi
    api_utc.o(.text) refers to api_utc.o(.constdata) for .constdata
    api_utc.o(.text) refers to main.o(.data) for g_debugLevel
    api_utc.o(.constdata) refers to api_utc.o(.conststring) for .conststring
    tools.o(.text) refers to printfa.o(i.__0printf) for __2printf
    tools.o(.text) refers to bsp_i2c.o(.text) for i2c_write
    tools.o(.text) refers to tasks.o(.text) for vTaskDelay
    tools.o(.text) refers to strcmp.o(.text) for strcmp
    tools.o(.text) refers to strtol.o(.text) for strtol
    tools.o(.text) refers to main.o(.data) for g_debugLevel
    tools.o(.text) refers to tools.o(.conststring) for .conststring
    tools.o(.text) refers to tools.o(.data) for arglist
    tools.o(.text) refers to atoi.o(.text) for atoi
    tools.o(.text) refers to gd32f30x_i2c.o(.text) for i2c_deinit
    tools.o(.text) refers to api_sensor.o(.text) for api_sensorGetSensorCount
    tools.o(.text) refers to api_subdevices.o(.text) for SubDevice_GetMyMode
    tools.o(.text) refers to f2d.o(.text) for __aeabi_f2d
    tools.o(.data) refers to tools.o(.text) for busArgHandler
    tools.o(.data) refers to tools.o(.conststring) for .conststring
    tools.o(shellCommand) refers to tools.o(.constdata) for shellCmdi2cTest
    tools.o(shellCommand) refers to tools.o(.text) for i2cTest
    hwd1668.o(.text) refers to printfa.o(i.__0printf) for __2printf
    hwd1668.o(.text) refers to main.o(.data) for g_debugLevel
    api_sensor.o(.text) refers to sdr.o(.text) for SensorGetUnitType
    api_sensor.o(.text) refers to api_adc.o(.text) for adc_sampleVal2Temp1
    api_sensor.o(.text) refers to api_subdevices.o(.text) for SubDevice_GetMyMode
    api_sensor.o(.text) refers to sensor_helpers.o(.text) for ipmi_convert_reading
    api_sensor.o(.text) refers to api_sensor.o(.data) for g_pDev_Handler
    api_sensor.o(.data) refers to dev_main.o(.constdata) for g_devHandler_main
    api_sensor.o(.data) refers to dev_net.o(.constdata) for g_devHandler_net
    api_sensor.o(.data) refers to dev_switch.o(.constdata) for g_devHandler_switch
    api_sensor.o(.data) refers to dev_power.o(.constdata) for g_devHandler_power
    api_sensor.o(.data) refers to dev_storage0.o(.constdata) for g_devHandler_storage0
    cjson.o(.text) refers to scanf_fp.o(.text) for _scanf_real
    cjson.o(.text) refers to printfa.o(i.__0sprintf) for __2sprintf
    cjson.o(.text) refers to tolower.o(.text) for tolower
    cjson.o(.text) refers to strlen.o(.text) for strlen
    cjson.o(.text) refers to memcpya.o(.text) for __aeabi_memcpy
    cjson.o(.text) refers to memseta.o(.text) for __aeabi_memclr4
    cjson.o(.text) refers to strtod.o(i.__hardfp_strtod) for __hardfp_strtod
    cjson.o(.text) refers to cdrcmple.o(.text) for __aeabi_cdrcmple
    cjson.o(.text) refers to cdcmple.o(.text) for __aeabi_cdcmple
    cjson.o(.text) refers to dfixi.o(.text) for __aeabi_d2iz
    cjson.o(.text) refers to strcpy.o(.text) for strcpy
    cjson.o(.text) refers to cjson.o(.data) for global_error
    cjson.o(.text) refers to cjson.o(.bss) for version
    cjson.o(.text) refers to mallocr.o(i.__malloc$realloc) for malloc
    cjson.o(.text) refers to mallocr.o(i.__free$realloc) for free
    cjson.o(.text) refers to mallocr.o(i.realloc) for realloc
    cjson.o(.text) refers to fabs.o(i.__hardfp_fabs) for __hardfp_fabs
    cjson.o(.text) refers to dmul.o(.text) for __aeabi_dmul
    cjson.o(.text) refers to dadd.o(.text) for __aeabi_dsub
    cjson.o(.text) refers to dflti.o(.text) for __aeabi_i2d
    cjson.o(.text) refers to __0sscanf.o(.text) for __0sscanf
    cjson.o(.text) refers to strncmp.o(.text) for strncmp
    cjson.o(.text) refers to strcmp.o(.text) for strcmp
    cjson.o(.text) refers to f2d.o(.text) for __aeabi_f2d
    cjson.o(.data) refers to mallocr.o(i.__malloc$realloc) for malloc
    cjson.o(.data) refers to mallocr.o(i.__free$realloc) for free
    cjson.o(.data) refers to mallocr.o(i.realloc) for realloc
    log.o(.text) refers to printfa.o(i.__0printf) for __2printf
    log.o(.text) refers to strcmp.o(.text) for strcmp
    log.o(.text) refers to atoi.o(.text) for atoi
    log.o(.text) refers to log.o(.data) for arglist
    log.o(.text) refers to main.o(.data) for g_debugLevel
    log.o(.data) refers to log.o(.text) for setLogLevelHandler
    log.o(.data) refers to log.o(.conststring) for .conststring
    log.o(shellCommand) refers to log.o(.constdata) for shellCmdlog
    log.o(shellCommand) refers to log.o(.text) for logs
    serialifc.o(.text) refers to printfa.o(i.__0printf) for __2printf
    serialifc.o(.text) refers to bsp_uartcomm.o(.text) for UART_sendData
    serialifc.o(.text) refers to serial.o(.text) for ProcessSerialMessage
    serialifc.o(.text) refers to memcpya.o(.text) for __aeabi_memcpy
    serialifc.o(.text) refers to main.o(.data) for g_debugLevel
    serial.o(.text) refers to api_subdevices.o(.text) for SubDevice_GetBus
    serial.o(.text) refers to msghndlr.o(.text) for ProcessIPMIReq
    rmcp.o(.text) refers to memseta.o(.text) for __aeabi_memclr4
    rmcp.o(.text) refers to printfa.o(i.__0printf) for __2printf
    rmcp.o(.text) refers to memcpya.o(.text) for __aeabi_memcpy
    rmcp.o(.text) refers to msghndlr.o(.text) for ProcessIPMIReq
    rmcp.o(.text) refers to msghndlr.o(.bss) for g_BMCInfo
    rmcp.o(.text) refers to main.o(.data) for g_debugLevel
    chassisctrl.o(.text) refers to timers.o(.text) for pvTimerGetTimerID
    chassisctrl.o(.text) refers to bsp_gpio.o(.text) for GPIO_setPinStatus
    chassisctrl.o(.text) refers to printfa.o(i.__0printf) for __2printf
    chassisctrl.o(.text) refers to tasks.o(.text) for xTaskGetTickCount
    chassisctrl.o(.text) refers to main.o(.data) for g_debugLevel
    msghndlr.o(.text) refers to memcpya.o(.text) for __aeabi_memcpy4
    msghndlr.o(.text) refers to bsp_i2c.o(.text) for i2c_dualaddr_set
    msghndlr.o(.text) refers to queue.o(.text) for xQueueGenericCreate
    msghndlr.o(.text) refers to printfa.o(i.__0printf) for __2printf
    msghndlr.o(.text) refers to bsp_uartcomm.o(.text) for UART_sendData
    msghndlr.o(.text) refers to ipmi_common.o(.text) for CalculateCheckSum
    msghndlr.o(.text) refers to msghndlr.o(.bss) for g_BMCInfo
    msghndlr.o(.text) refers to msghndlr.o(.constdata) for m_MsgHndlrTbl
    msghndlr.o(.text) refers to msghndlr.o(.data) for ResponseDatMsg_Queue
    msghndlr.o(.text) refers to main.o(.data) for g_debugLevel
    msghndlr.o(.text) refers to tasks.o(.text) for xTaskCreate
    msghndlr.o(.text) refers to memseta.o(.text) for __aeabi_memclr4
    msghndlr.o(.text) refers to serialifc.o(.text) for ProcessSerialReq
    msghndlr.o(.constdata) refers to chassis.o(.constdata) for g_Chassis_CmdHndlr
    msghndlr.o(.constdata) refers to bridge.o(.constdata) for g_Bridge_CmdHndlr
    msghndlr.o(.constdata) refers to sensorevent.o(.constdata) for g_SensorEvent_CmdHndlr
    msghndlr.o(.constdata) refers to app.o(.constdata) for g_App_CmdHndlr
    msghndlr.o(.constdata) refers to storage.o(.constdata) for g_Storage_CmdHndlr
    msghndlr.o(.constdata) refers to oem.o(.constdata) for g_Oem_CmdHndlr
    app.o(.constdata) refers to ipmdevice.o(.text) for APPReserved
    app.o(.constdata) refers to appdevice.o(.text) for ResetWDT
    appdevice.o(.text) refers to memcpya.o(.text) for __aeabi_memcpy
    appdevice.o(.text) refers to ipmi_common.o(.text) for CalculateCheckSum
    appdevice.o(.text) refers to printfa.o(i.__0printf) for __2printf
    appdevice.o(.text) refers to queue.o(.text) for xQueueGenericSend
    appdevice.o(.text) refers to memseta.o(.text) for __aeabi_memclr4
    appdevice.o(.text) refers to msghndlr.o(.bss) for g_BMCInfo
    appdevice.o(.text) refers to main.o(.data) for g_debugLevel
    appdevice.o(.text) refers to msghndlr.o(.data) for ResponseDatMsg_Queue
    chassis.o(.constdata) refers to chassisdevice.o(.text) for GetChassisStatus
    oem.o(.text) refers to api_fan.o(.text) for fan_getFanSensorNum
    oem.o(.text) refers to bsp_gpio.o(.text) for get_board_addr
    oem.o(.text) refers to api_cpu.o(.text) for GetBmcRunTime
    oem.o(.text) refers to main.o(.data) for g_bmc_firmware_version
    oem.o(.constdata) refers to oem.o(.text) for GetBladId
    sensorevent.o(.constdata) refers to sensor.o(.text) for GetDevSDRInfo
    sensor.o(.text) refers to sdr.o(.text) for SDR_GetFirstSDRRec
    sensor.o(.text) refers to printfa.o(i.__0printf) for __2printf
    sensor.o(.text) refers to msghndlr.o(.bss) for g_BMCInfo
    sensor.o(.text) refers to main.o(.data) for g_debugLevel
    sensor.o(.text) refers to sensor.o(.conststring) for .conststring
    sensor.o(.text) refers to memcpya.o(.text) for __aeabi_memcpy
    sensor.o(.text) refers to api_subdevices.o(.text) for SubDevice_GetMyMode
    sensor.o(.text) refers to sensor.o(.constdata) for __func__
    sensor.o(.text) refers to api_sensor.o(.text) for api_sensorGetIPMBVal
    sensor.o(.text) refers to sensor_helpers.o(.text) for ipmi_conv_reading
    storage.o(.constdata) refers to sdr.o(.text) for GetSDRRepositoryInfo
    storage.o(.constdata) refers to msghndlr.o(.text) for UnImplementedFunc
    sdr.o(.text) refers to api_sensor.o(.text) for api_sensorGetSensorCount
    sdr.o(.text) refers to api_subdevices.o(.text) for SubDevice_GetMyMode
    sdr.o(.text) refers to memcpya.o(.text) for __aeabi_memcpy
    sdr.o(.text) refers to strlen.o(.text) for strlen
    sdr.o(.text) refers to printfa.o(i.__0printf) for __2printf
    sdr.o(.text) refers to memseta.o(.text) for __aeabi_memclr
    sdr.o(.text) refers to msghndlr.o(.bss) for g_BMCInfo
    sdr.o(.text) refers to sdr.o(.data) for g_sensor_sdr
    sdr.o(.text) refers to sdr.o(.bss) for g_fullSensorRec_Tmp
    sdr.o(.text) refers to sdr.o(.constdata) for SDRSize
    sdr.o(.text) refers to ipmi_common.o(.text) for CalculateCheckSum2
    sdr.o(.text) refers to sensor.o(.text) for SetSensorType
    sdr.o(.text) refers to rand.o(.text) for rand
    sdr.o(.text) refers to main.o(.data) for g_debugLevel
    ipmdevice.o(.text) refers to _scanf_int.o(.text) for _scanf_int
    ipmdevice.o(.text) refers to __0sscanf.o(.text) for __0sscanf
    ipmdevice.o(.text) refers to queue.o(.text) for xQueueGenericSend
    ipmdevice.o(.text) refers to printfa.o(i.__0printf) for __2printf
    ipmdevice.o(.text) refers to msghndlr.o(.bss) for g_BMCInfo
    ipmdevice.o(.text) refers to ipmdevice.o(.data) for firsttime
    ipmdevice.o(.text) refers to ipmdevice.o(.constdata) for MfgID
    ipmdevice.o(.text) refers to main.o(.data) for g_chassisCtrl_Queue
    chassisdevice.o(.text) refers to printfa.o(i.__0printf) for __2printf
    chassisdevice.o(.text) refers to queue.o(.text) for xQueueGenericSend
    chassisdevice.o(.text) refers to main.o(.data) for g_debugLevel
    chassisdevice.o(.text) refers to msghndlr.o(.bss) for g_BMCInfo
    sensor_helpers.o(.text) refers to printfa.o(i.__0printf) for __2printf
    sensor_helpers.o(.text) refers to memcpya.o(.text) for __aeabi_memcpy
    sensor_helpers.o(.text) refers to dflti.o(.text) for __aeabi_i2d
    sensor_helpers.o(.text) refers to pow.o(i.__hardfp_pow) for __hardfp_pow
    sensor_helpers.o(.text) refers to dmul.o(.text) for __aeabi_dmul
    sensor_helpers.o(.text) refers to ddiv.o(.text) for __aeabi_ddiv
    sensor_helpers.o(.text) refers to dadd.o(.text) for __aeabi_dsub
    sensor_helpers.o(.text) refers to dfixi.o(.text) for __aeabi_d2iz
    sensor_helpers.o(.text) refers to cdrcmple.o(.text) for __aeabi_cdrcmple
    sensor_helpers.o(.text) refers to ceil.o(i.__hardfp_ceil) for __hardfp_ceil
    sensor_helpers.o(.text) refers to dfixui.o(.text) for __aeabi_d2uiz
    bsp_adc.o(.text) refers to gd32f30x_adc.o(.text) for adc_deinit
    bsp_adc.o(.text) refers to tasks.o(.text) for vTaskDelay
    bsp_adc.o(.text) refers to gd32f30x_rcu.o(.text) for rcu_periph_clock_enable
    bsp_adc.o(.text) refers to gd32f30x_gpio.o(.text) for gpio_init
    bsp_capture.o(.text) refers to gd32f30x_rcu.o(.text) for rcu_periph_clock_enable
    bsp_capture.o(.text) refers to gd32f30x_gpio.o(.text) for gpio_init
    bsp_capture.o(.text) refers to gd32f30x_timer.o(.text) for timer_init
    bsp_capture.o(.text) refers to gd32f30x_misc.o(.text) for nvic_irq_enable
    bsp_capture.o(.text) refers to system_gd32f30x.o(.data) for SystemCoreClock
    bsp_capture.o(.text) refers to bsp_capture.o(.bss) for g_Cap
    bsp_capture.o(.text) refers to bsp_capture.o(.constdata) for g_captureConfig
    bsp_i2c.o(.text) refers to gd32f30x_i2c.o(.text) for i2c_mode_addr_config
    bsp_i2c.o(.text) refers to api_subdevices.o(.text) for SubDevice_GetMySlaveAddress
    bsp_i2c.o(.text) refers to gd32f30x_misc.o(.text) for nvic_irq_enable
    bsp_i2c.o(.text) refers to gd32f30x_gpio.o(.text) for gpio_init
    bsp_i2c.o(.text) refers to gd32f30x_rcu.o(.text) for rcu_periph_clock_enable
    bsp_i2c.o(.text) refers to ipmdevice.o(.text) for SetDevAddr
    bsp_i2c.o(.text) refers to port.o(.text) for vPortEnterCritical
    bsp_i2c.o(.text) refers to printfa.o(i.__0printf) for __2printf
    bsp_i2c.o(.text) refers to queue.o(.text) for xQueueGenericSendFromISR
    bsp_i2c.o(.text) refers to main.o(.data) for g_debugLevel
    bsp_i2c.o(.text) refers to bsp_i2c.o(.bss) for g_i2c_Req
    bsp_i2c.o(.text) refers to msghndlr.o(.data) for RecvForwardI2CDatMsg_Queue
    bsp_i2c.o(.text) refers to bsp_i2c.o(.data) for xHigherPriorityTaskWoken
    bsp_i2c_gpio.o(.text) refers to tools.o(.text) for Delay_NoSchedue
    bsp_i2c_gpio.o(.text) refers to gd32f30x_gpio.o(.text) for gpio_bit_reset
    bsp_i2c_gpio.o(.text) refers to gd32f30x_rcu.o(.text) for rcu_periph_clock_enable
    bsp_led.o(.text) refers to gd32f30x_rcu.o(.text) for rcu_periph_clock_enable
    bsp_led.o(.text) refers to gd32f30x_gpio.o(.text) for gpio_init
    bsp_pwm.o(.text) refers to gd32f30x_rcu.o(.text) for rcu_periph_clock_enable
    bsp_pwm.o(.text) refers to gd32f30x_gpio.o(.text) for gpio_init
    bsp_pwm.o(.text) refers to gd32f30x_timer.o(.text) for timer_deinit
    bsp_pwm.o(.text) refers to system_gd32f30x.o(.data) for SystemCoreClock
    bsp_uart3.o(.text) refers to fifo.o(.text) for FIFO_Init
    bsp_uart3.o(.text) refers to bsp_uartcomm.o(.text) for COM_init
    bsp_uart3.o(.text) refers to gd32f30x_usart.o(.text) for usart_interrupt_flag_get
    bsp_uart3.o(.text) refers to bsp_uart3.o(.bss) for g_buffSend
    bsp_uart3.o(.text) refers to bsp_uart3.o(.data) for g_UARTPara
    bsp_uart3.o(.data) refers to bsp_uart3.o(.constdata) for g_uart3Config
    bsp_usart0.o(.text) refers to fifo.o(.text) for FIFO_Init
    bsp_usart0.o(.text) refers to bsp_uartcomm.o(.text) for COM_init
    bsp_usart0.o(.text) refers to gd32f30x_usart.o(.text) for usart_interrupt_flag_get
    bsp_usart0.o(.text) refers to queue.o(.text) for xQueueGenericSendFromISR
    bsp_usart0.o(.text) refers to printfa.o(i.__0printf) for __2printf
    bsp_usart0.o(.text) refers to bsp_usart0.o(.bss) for g_buffSend
    bsp_usart0.o(.text) refers to bsp_usart0.o(.data) for g_UARTPara
    bsp_usart0.o(.text) refers to msghndlr.o(.data) for RecvDatMsg_Queue
    bsp_usart0.o(.text) refers to main.o(.data) for g_debugLevel
    bsp_usart0.o(.data) refers to bsp_usart0.o(.constdata) for g_uart0Config
    bsp_usart1.o(.text) refers to fifo.o(.text) for FIFO_Init
    bsp_usart1.o(.text) refers to bsp_uartcomm.o(.text) for COM_init
    bsp_usart1.o(.text) refers to gd32f30x_usart.o(.text) for usart_interrupt_flag_get
    bsp_usart1.o(.text) refers to bsp_usart1.o(.bss) for g_buffSend
    bsp_usart1.o(.text) refers to bsp_usart1.o(.data) for g_UARTPara
    bsp_usart1.o(.data) refers to bsp_usart1.o(.constdata) for g_uart1Config
    bsp_gpio.o(.text) refers to gd32f30x_rcu.o(.text) for rcu_periph_clock_enable
    bsp_gpio.o(.text) refers to gd32f30x_gpio.o(.text) for gpio_init
    bsp_gpio.o(.text) refers to api_subdevices.o(.text) for SubDevice_CheckAndPrintMode
    bsp_gpio.o(.text) refers to printfa.o(i.__0printf) for __2printf
    bsp_gpio.o(.text) refers to bsp_gpio.o(.data) for g_pGpioConfig_Handler
    bsp_gpio.o(.text) refers to main.o(.data) for g_debugLevel
    bsp_gpio.o(.text) refers to bsp_gpio.o(.constdata) for g_gpioConfigComm
    bsp_gpio.o(.data) refers to dev_main.o(.constdata) for g_gpioConfigHandler_main
    bsp_net_gpio.o(.text) refers to gd32f30x_rcu.o(.text) for rcu_periph_clock_enable
    bsp_net_gpio.o(.text) refers to gd32f30x_gpio.o(.text) for gpio_init
    bsp_timer.o(.text) refers to gd32f30x_misc.o(.text) for nvic_irq_enable
    bsp_timer.o(.text) refers to gd32f30x_rcu.o(.text) for rcu_periph_clock_enable
    bsp_timer.o(.text) refers to gd32f30x_timer.o(.text) for timer_deinit
    bsp_timer.o(.text) refers to system_gd32f30x.o(.data) for SystemCoreClock
    bsp_timer.o(.text) refers to bsp_timer.o(.data) for g_time_run
    bsp_uartcomm.o(.text) refers to fifo.o(i.FIFO_Empty) for FIFO_Empty
    bsp_uartcomm.o(.text) refers to fifo.o(.text) for FIFO_Read
    bsp_uartcomm.o(.text) refers to gd32f30x_usart.o(.text) for usart_data_transmit
    bsp_uartcomm.o(.text) refers to gd32f30x_rcu.o(.text) for rcu_periph_clock_enable
    bsp_uartcomm.o(.text) refers to gd32f30x_gpio.o(.text) for gpio_init
    bsp_uartcomm.o(.text) refers to gd32f30x_misc.o(.text) for nvic_irq_enable
    bsp_uartcomm.o(.text) refers to bsp_usart0.o(.text) for UART0_init
    bsp_uartcomm.o(.text) refers to bsp_usart1.o(.text) for UART1_init
    bsp_uartcomm.o(.text) refers to bsp_uartcomm.o(.bss) for g_pUARTSHandler
    system_gd32f30x.o(.text) refers to system_gd32f30x.o(.data) for SystemCoreClock
    gd32f30x_adc.o(.text) refers to gd32f30x_rcu.o(.text) for rcu_periph_reset_enable
    gd32f30x_bkp.o(.text) refers to gd32f30x_rcu.o(.text) for rcu_bkp_reset_enable
    gd32f30x_gpio.o(.text) refers to gd32f30x_rcu.o(.text) for rcu_periph_reset_enable
    gd32f30x_i2c.o(.text) refers to gd32f30x_rcu.o(.text) for rcu_periph_reset_enable
    gd32f30x_spi.o(.text) refers to gd32f30x_rcu.o(.text) for rcu_periph_reset_enable
    gd32f30x_timer.o(.text) refers to gd32f30x_rcu.o(.text) for rcu_periph_reset_enable
    gd32f30x_usart.o(.text) refers to gd32f30x_rcu.o(.text) for rcu_periph_reset_enable
    gd32f30x_wwdgt.o(.text) refers to gd32f30x_rcu.o(.text) for rcu_periph_reset_enable
    startup_gd32f30x_cl.o(RESET) refers to startup_gd32f30x_cl.o(STACK) for __initial_sp
    startup_gd32f30x_cl.o(RESET) refers to startup_gd32f30x_cl.o(.text) for Reset_Handler
    startup_gd32f30x_cl.o(RESET) refers to gd32f30x_it.o(.text) for NMI_Handler
    startup_gd32f30x_cl.o(RESET) refers to port.o(.emb_text) for SVC_Handler
    startup_gd32f30x_cl.o(RESET) refers to bsp_capture.o(.text) for TIMER0_UP_TIMER9_IRQHandler
    startup_gd32f30x_cl.o(RESET) refers to bsp_timer.o(.text) for TIMER2_IRQHandler
    startup_gd32f30x_cl.o(RESET) refers to bsp_i2c.o(.text) for I2C0_EV_IRQHandler
    startup_gd32f30x_cl.o(RESET) refers to bsp_usart0.o(.text) for USART0_IRQHandler
    startup_gd32f30x_cl.o(RESET) refers to bsp_usart1.o(.text) for USART1_IRQHandler
    startup_gd32f30x_cl.o(RESET) refers to bsp_uart3.o(.text) for UART3_IRQHandler
    startup_gd32f30x_cl.o(.text) refers to system_gd32f30x.o(.text) for SystemInit
    startup_gd32f30x_cl.o(.text) refers to entry.o(.ARM.Collect$$$$00000000) for __main
    event_groups.o(.text) refers to heap_4.o(.text) for pvPortMalloc
    event_groups.o(.text) refers to list.o(.text) for vListInitialise
    event_groups.o(.text) refers to printfa.o(i.__0printf) for __2printf
    event_groups.o(.text) refers to tasks.o(.text) for vTaskSuspendAll
    event_groups.o(.text) refers to port.o(.text) for vPortEnterCritical
    event_groups.o(.text) refers to timers.o(.text) for xTimerPendFunctionCallFromISR
    queue.o(.text) refers to printfa.o(i.__0printf) for __2printf
    queue.o(.text) refers to port.o(.text) for vPortEnterCritical
    queue.o(.text) refers to tasks.o(.text) for xTaskRemoveFromEventList
    queue.o(.text) refers to list.o(.text) for vListInitialise
    queue.o(.text) refers to heap_4.o(.text) for pvPortMalloc
    queue.o(.text) refers to memcpya.o(.text) for __aeabi_memcpy
    queue.o(.text) refers to queue.o(.bss) for xQueueRegistry
    tasks.o(.text) refers to printfa.o(i.__0printf) for __2printf
    tasks.o(.text) refers to list.o(.text) for vListInitialise
    tasks.o(.text) refers to port.o(.text) for vPortEnterCritical
    tasks.o(.text) refers to memseta.o(.text) for __aeabi_memset
    tasks.o(.text) refers to heap_4.o(.text) for pvPortMalloc
    tasks.o(.text) refers to main.o(.data) for g_debugLevel
    tasks.o(.text) refers to tasks.o(.bss) for pxReadyTasksLists
    tasks.o(.text) refers to tasks.o(.data) for pxDelayedTaskList
    tasks.o(.text) refers to bsp_gpio.o(.text) for GPIO_setPinStatus
    tasks.o(.text) refers to main.o(.text) for vApplicationIdleHook
    tasks.o(.text) refers to timers.o(.text) for xTimerCreateTimerTask
    tasks.o(.text) refers to strcpy.o(.text) for strcpy
    tasks.o(.text) refers to strlen.o(.text) for strlen
    tasks.o(.text) refers to printfa.o(i.__0sprintf) for __2sprintf
    tasks.o(.text) refers to bsp_uartcomm.o(.text) for UART_sendDataBlock
    timers.o(.text) refers to list.o(.text) for vListInsert
    timers.o(.text) refers to printfa.o(i.__0printf) for __2printf
    timers.o(.text) refers to tasks.o(.text) for xTaskGetSchedulerState
    timers.o(.text) refers to queue.o(.text) for xQueueGenericSend
    timers.o(.text) refers to heap_4.o(.text) for vPortFree
    timers.o(.text) refers to port.o(.text) for vPortEnterCritical
    timers.o(.text) refers to timers.o(.data) for pxOverflowTimerList
    timers.o(.text) refers to timers.o(.bss) for xActiveTimerList1
    heap_4.o(.text) refers to tasks.o(.text) for vTaskSuspendAll
    heap_4.o(.text) refers to printfa.o(i.__0printf) for __2printf
    heap_4.o(.text) refers to heap_4.o(.data) for xStart
    heap_4.o(.text) refers to heap_4.o(.bss) for ucHeap
    port.o(.emb_text) refers to tasks.o(.text) for vTaskSwitchContext
    port.o(.emb_text) refers to tasks.o(.data) for pxCurrentTCB
    port.o(.text) refers to printfa.o(i.__0printf) for __2printf
    port.o(.text) refers to port.o(.emb_text) for __asm___6_port_c_39a90d8d__prvStartFirstTask
    port.o(.text) refers to main.o(.text) for time_update
    port.o(.text) refers to tasks.o(.text) for xTaskIncrementTick
    port.o(.text) refers to port.o(.data) for uxCriticalNesting
    port.o(.text) refers to system_gd32f30x.o(.data) for SystemCoreClock
    shell.o(.text) refers to strcmp.o(.text) for strcmp
    shell.o(.text) refers to strncmp.o(.text) for strncmp
    shell.o(.text) refers to strlen.o(.text) for strlen
    shell.o(.text) refers to printfa.o(i.__0vsnprintf) for vsnprintf
    shell.o(.text) refers to shell.o(.data) for shellText
    shell.o(.text) refers to shell.o(.bss) for buffer
    shell.o(.text) refers to tasks.o(.text) for vTaskDelay
    shell.o(.text) refers to shell_ext.o(.text) for shellExtRun
    shell.o(.text) refers to systick.o(.text) for GetTickMs
    shell.o(.text) refers to shell_port.o(.text) for userShellInit
    shell.o(.data) refers to shell.o(.conststring) for .conststring
    shell.o(shellCommand) refers to shell.o(.constdata) for shellCmdDefaultUser
    shell.o(shellCommand) refers to shell.o(.text) for shellSetVar
    shell_ext.o(.text) refers to shell.o(.text) for shellSeekCommand
    shell_ext.o(.text) refers to memseta.o(.text) for __aeabi_memclr4
    shell_port.o(.text) refers to bsp_uartcomm.o(.text) for UART_sendByte
    shell_port.o(.text) refers to shell.o(.text) for shellInit
    shell_port.o(.text) refers to shell_port.o(.bss) for shell
    ceil.o(i.__hardfp_ceil) refers (Special) to iusefp.o(.text) for __I$use$fp
    ceil.o(i.__hardfp_ceil) refers to dadd.o(.text) for __aeabi_dadd
    ceil.o(i.__hardfp_ceil) refers to cdrcmple.o(.text) for __aeabi_cdrcmple
    ceil.o(i.__softfp_ceil) refers (Special) to iusefp.o(.text) for __I$use$fp
    ceil.o(i.__softfp_ceil) refers to ceil.o(i.__hardfp_ceil) for __hardfp_ceil
    ceil.o(i.ceil) refers (Special) to iusefp.o(.text) for __I$use$fp
    ceil.o(i.ceil) refers to ceil.o(i.__hardfp_ceil) for __hardfp_ceil
    fabs.o(i.__hardfp_fabs) refers (Special) to iusefp.o(.text) for __I$use$fp
    fabs.o(i.__softfp_fabs) refers (Special) to iusefp.o(.text) for __I$use$fp
    fabs.o(i.fabs) refers (Special) to iusefp.o(.text) for __I$use$fp
    log.o(i.__hardfp_log) refers (Special) to iusefp.o(.text) for __I$use$fp
    log.o(i.__hardfp_log) refers to dunder.o(i.__mathlib_dbl_infnan) for __mathlib_dbl_infnan
    log.o(i.__hardfp_log) refers to errno.o(i.__set_errno) for __set_errno
    log.o(i.__hardfp_log) refers to dunder.o(i.__mathlib_dbl_invalid) for __mathlib_dbl_invalid
    log.o(i.__hardfp_log) refers to dunder.o(i.__mathlib_dbl_divzero) for __mathlib_dbl_divzero
    log.o(i.__hardfp_log) refers to dmul.o(.text) for __aeabi_dmul
    log.o(i.__hardfp_log) refers to dadd.o(.text) for __aeabi_dsub
    log.o(i.__hardfp_log) refers to cdcmple.o(.text) for __aeabi_cdcmpeq
    log.o(i.__hardfp_log) refers to dflti.o(.text) for __aeabi_i2d
    log.o(i.__hardfp_log) refers to ddiv.o(.text) for __aeabi_ddiv
    log.o(i.__hardfp_log) refers to poly.o(i.__kernel_poly) for __kernel_poly
    log.o(i.__hardfp_log) refers to qnan.o(.constdata) for __mathlib_zero
    log.o(i.__hardfp_log) refers to log.o(.constdata) for .constdata
    log.o(i.__softfp_log) refers (Special) to iusefp.o(.text) for __I$use$fp
    log.o(i.__softfp_log) refers to log.o(i.__hardfp_log) for __hardfp_log
    log.o(i.log) refers (Special) to iusefp.o(.text) for __I$use$fp
    log.o(i.log) refers to log.o(i.__hardfp_log) for __hardfp_log
    log.o(.constdata) refers (Special) to iusefp.o(.text) for __I$use$fp
    log_x.o(i.____hardfp_log$lsc) refers (Special) to iusefp.o(.text) for __I$use$fp
    log_x.o(i.____hardfp_log$lsc) refers to dunder.o(i.__mathlib_dbl_infnan) for __mathlib_dbl_infnan
    log_x.o(i.____hardfp_log$lsc) refers to errno.o(i.__set_errno) for __set_errno
    log_x.o(i.____hardfp_log$lsc) refers to dmul.o(.text) for __aeabi_dmul
    log_x.o(i.____hardfp_log$lsc) refers to dadd.o(.text) for __aeabi_dsub
    log_x.o(i.____hardfp_log$lsc) refers to cdcmple.o(.text) for __aeabi_cdcmpeq
    log_x.o(i.____hardfp_log$lsc) refers to dflti.o(.text) for __aeabi_i2d
    log_x.o(i.____hardfp_log$lsc) refers to ddiv.o(.text) for __aeabi_ddiv
    log_x.o(i.____hardfp_log$lsc) refers to poly.o(i.__kernel_poly) for __kernel_poly
    log_x.o(i.____hardfp_log$lsc) refers to qnan.o(.constdata) for __mathlib_zero
    log_x.o(i.____hardfp_log$lsc) refers to log_x.o(.constdata) for .constdata
    log_x.o(i.____softfp_log$lsc) refers (Special) to iusefp.o(.text) for __I$use$fp
    log_x.o(i.____softfp_log$lsc) refers to log_x.o(i.____hardfp_log$lsc) for ____hardfp_log$lsc
    log_x.o(i.__log$lsc) refers (Special) to iusefp.o(.text) for __I$use$fp
    log_x.o(i.__log$lsc) refers to log_x.o(i.____hardfp_log$lsc) for ____hardfp_log$lsc
    log_x.o(.constdata) refers (Special) to iusefp.o(.text) for __I$use$fp
    pow.o(i.__hardfp_pow) refers (Special) to iusefp.o(.text) for __I$use$fp
    pow.o(i.__hardfp_pow) refers to dunder.o(i.__mathlib_dbl_infnan2) for __mathlib_dbl_infnan2
    pow.o(i.__hardfp_pow) refers to errno.o(i.__set_errno) for __set_errno
    pow.o(i.__hardfp_pow) refers to dunder.o(i.__mathlib_dbl_divzero) for __mathlib_dbl_divzero
    pow.o(i.__hardfp_pow) refers to dunder.o(i.__mathlib_dbl_overflow) for __mathlib_dbl_overflow
    pow.o(i.__hardfp_pow) refers to ddiv.o(.text) for __aeabi_ddiv
    pow.o(i.__hardfp_pow) refers to sqrt.o(i.sqrt) for sqrt
    pow.o(i.__hardfp_pow) refers to fabs.o(i.fabs) for fabs
    pow.o(i.__hardfp_pow) refers to dflti.o(.text) for __aeabi_i2d
    pow.o(i.__hardfp_pow) refers to dunder.o(i.__mathlib_dbl_invalid) for __mathlib_dbl_invalid
    pow.o(i.__hardfp_pow) refers to dmul.o(.text) for __aeabi_dmul
    pow.o(i.__hardfp_pow) refers to dunder.o(i.__mathlib_dbl_underflow) for __mathlib_dbl_underflow
    pow.o(i.__hardfp_pow) refers to dadd.o(.text) for __aeabi_dsub
    pow.o(i.__hardfp_pow) refers to qnan.o(.constdata) for __mathlib_zero
    pow.o(i.__hardfp_pow) refers to poly.o(i.__kernel_poly) for __kernel_poly
    pow.o(i.__hardfp_pow) refers to pow.o(.constdata) for .constdata
    pow.o(i.__hardfp_pow) refers to cdrcmple.o(.text) for __aeabi_cdrcmple
    pow.o(i.__hardfp_pow) refers to dscalb.o(.text) for __ARM_scalbn
    pow.o(i.__hardfp_pow) refers to fpclassify.o(i.__ARM_fpclassify) for __ARM_fpclassify
    pow.o(i.__softfp_pow) refers (Special) to iusefp.o(.text) for __I$use$fp
    pow.o(i.__softfp_pow) refers to pow.o(i.__hardfp_pow) for __hardfp_pow
    pow.o(i.pow) refers (Special) to iusefp.o(.text) for __I$use$fp
    pow.o(i.pow) refers to pow.o(i.__hardfp_pow) for __hardfp_pow
    pow.o(.constdata) refers (Special) to iusefp.o(.text) for __I$use$fp
    pow_x.o(i.____hardfp_pow$lsc) refers (Special) to iusefp.o(.text) for __I$use$fp
    pow_x.o(i.____hardfp_pow$lsc) refers to dunder.o(i.__mathlib_dbl_infnan2) for __mathlib_dbl_infnan2
    pow_x.o(i.____hardfp_pow$lsc) refers to errno.o(i.__set_errno) for __set_errno
    pow_x.o(i.____hardfp_pow$lsc) refers to ddiv.o(.text) for __aeabi_ddiv
    pow_x.o(i.____hardfp_pow$lsc) refers to sqrt.o(i.sqrt) for sqrt
    pow_x.o(i.____hardfp_pow$lsc) refers to fabs.o(i.fabs) for fabs
    pow_x.o(i.____hardfp_pow$lsc) refers to dflti.o(.text) for __aeabi_i2d
    pow_x.o(i.____hardfp_pow$lsc) refers to dmul.o(.text) for __aeabi_dmul
    pow_x.o(i.____hardfp_pow$lsc) refers to dadd.o(.text) for __aeabi_dsub
    pow_x.o(i.____hardfp_pow$lsc) refers to qnan.o(.constdata) for __mathlib_zero
    pow_x.o(i.____hardfp_pow$lsc) refers to poly.o(i.__kernel_poly) for __kernel_poly
    pow_x.o(i.____hardfp_pow$lsc) refers to pow_x.o(.constdata) for .constdata
    pow_x.o(i.____hardfp_pow$lsc) refers to cdrcmple.o(.text) for __aeabi_cdrcmple
    pow_x.o(i.____hardfp_pow$lsc) refers to dscalb.o(.text) for __ARM_scalbn
    pow_x.o(i.____softfp_pow$lsc) refers (Special) to iusefp.o(.text) for __I$use$fp
    pow_x.o(i.____softfp_pow$lsc) refers to pow_x.o(i.____hardfp_pow$lsc) for ____hardfp_pow$lsc
    pow_x.o(i.__pow$lsc) refers (Special) to iusefp.o(.text) for __I$use$fp
    pow_x.o(i.__pow$lsc) refers to pow_x.o(i.____hardfp_pow$lsc) for ____hardfp_pow$lsc
    pow_x.o(.constdata) refers (Special) to iusefp.o(.text) for __I$use$fp
    strtod.o(i.__hardfp_strtod) refers (Special) to iusefp.o(.text) for __I$use$fp
    strtod.o(i.__hardfp_strtod) refers to strtod.o(.text) for __strtod_int
    strtod.o(i.__softfp_strtod) refers (Special) to iusefp.o(.text) for __I$use$fp
    strtod.o(i.__softfp_strtod) refers to strtod.o(.text) for __strtod_int
    strtod.o(i.strtod) refers (Special) to iusefp.o(.text) for __I$use$fp
    strtod.o(i.strtod) refers to strtod.o(.text) for __strtod_int
    entry.o(.ARM.Collect$$$$00000000) refers (Special) to entry10a.o(.ARM.Collect$$$$0000000F) for __rt_final_cpp
    entry.o(.ARM.Collect$$$$00000000) refers (Special) to entry11a.o(.ARM.Collect$$$$00000011) for __rt_final_exit
    entry.o(.ARM.Collect$$$$00000000) refers (Special) to entry12b.o(.ARM.Collect$$$$0000000E) for __rt_lib_shutdown_fini
    entry.o(.ARM.Collect$$$$00000000) refers (Special) to entry7b.o(.ARM.Collect$$$$00000008) for _main_clock
    entry.o(.ARM.Collect$$$$00000000) refers (Special) to entry8b.o(.ARM.Collect$$$$0000000A) for _main_cpp_init
    entry.o(.ARM.Collect$$$$00000000) refers (Special) to entry9a.o(.ARM.Collect$$$$0000000B) for _main_init
    entry.o(.ARM.Collect$$$$00000000) refers (Special) to entry5.o(.ARM.Collect$$$$00000004) for _main_scatterload
    entry.o(.ARM.Collect$$$$00000000) refers (Special) to entry2.o(.ARM.Collect$$$$00000001) for _main_stk
    rand.o(.text) refers to rand.o(.data) for .data
    strtok.o(.text) refers to strtok.o(.data) for .data
    strtok_r.o(.text) refers to strtok_r.o(.data) for .data
    printfb.o(i.__0fprintf$bare) refers to printfb.o(i._printf_core) for _printf_core
    printfb.o(i.__0fprintf$bare) refers to bsp_uartcomm.o(.text) for fputc
    printfb.o(i.__0printf$bare) refers to printfb.o(i._printf_core) for _printf_core
    printfb.o(i.__0printf$bare) refers to bsp_uartcomm.o(.text) for fputc
    printfb.o(i.__0printf$bare) refers to stdout.o(.data) for __stdout
    printfb.o(i.__0snprintf$bare) refers to printfb.o(i._printf_core) for _printf_core
    printfb.o(i.__0snprintf$bare) refers to printfb.o(i._snputc) for _snputc
    printfb.o(i.__0sprintf$bare) refers to printfb.o(i._printf_core) for _printf_core
    printfb.o(i.__0sprintf$bare) refers to printfb.o(i._sputc) for _sputc
    printfb.o(i.__0vfprintf$bare) refers to printfb.o(i._printf_core) for _printf_core
    printfb.o(i.__0vfprintf$bare) refers to bsp_uartcomm.o(.text) for fputc
    printfb.o(i.__0vprintf$bare) refers to printfb.o(i._printf_core) for _printf_core
    printfb.o(i.__0vprintf$bare) refers to bsp_uartcomm.o(.text) for fputc
    printfb.o(i.__0vprintf$bare) refers to stdout.o(.data) for __stdout
    printfb.o(i.__0vsnprintf$bare) refers to printfb.o(i._printf_core) for _printf_core
    printfb.o(i.__0vsnprintf$bare) refers to printfb.o(i._snputc) for _snputc
    printfb.o(i.__0vsprintf$bare) refers to printfb.o(i._printf_core) for _printf_core
    printfb.o(i.__0vsprintf$bare) refers to printfb.o(i._sputc) for _sputc
    printf0.o(i.__0fprintf$0) refers to printf0.o(i._printf_core) for _printf_core
    printf0.o(i.__0fprintf$0) refers to bsp_uartcomm.o(.text) for fputc
    printf0.o(i.__0printf$0) refers to printf0.o(i._printf_core) for _printf_core
    printf0.o(i.__0printf$0) refers to bsp_uartcomm.o(.text) for fputc
    printf0.o(i.__0printf$0) refers to stdout.o(.data) for __stdout
    printf0.o(i.__0snprintf$0) refers to printf0.o(i._printf_core) for _printf_core
    printf0.o(i.__0snprintf$0) refers to printf0.o(i._snputc) for _snputc
    printf0.o(i.__0sprintf$0) refers to printf0.o(i._printf_core) for _printf_core
    printf0.o(i.__0sprintf$0) refers to printf0.o(i._sputc) for _sputc
    printf0.o(i.__0vfprintf$0) refers to printf0.o(i._printf_core) for _printf_core
    printf0.o(i.__0vfprintf$0) refers to bsp_uartcomm.o(.text) for fputc
    printf0.o(i.__0vprintf$0) refers to printf0.o(i._printf_core) for _printf_core
    printf0.o(i.__0vprintf$0) refers to bsp_uartcomm.o(.text) for fputc
    printf0.o(i.__0vprintf$0) refers to stdout.o(.data) for __stdout
    printf0.o(i.__0vsnprintf$0) refers to printf0.o(i._printf_core) for _printf_core
    printf0.o(i.__0vsnprintf$0) refers to printf0.o(i._snputc) for _snputc
    printf0.o(i.__0vsprintf$0) refers to printf0.o(i._printf_core) for _printf_core
    printf0.o(i.__0vsprintf$0) refers to printf0.o(i._sputc) for _sputc
    printf1.o(i.__0fprintf$1) refers to printf1.o(i._printf_core) for _printf_core
    printf1.o(i.__0fprintf$1) refers to bsp_uartcomm.o(.text) for fputc
    printf1.o(i.__0printf$1) refers to printf1.o(i._printf_core) for _printf_core
    printf1.o(i.__0printf$1) refers to bsp_uartcomm.o(.text) for fputc
    printf1.o(i.__0printf$1) refers to stdout.o(.data) for __stdout
    printf1.o(i.__0snprintf$1) refers to printf1.o(i._printf_core) for _printf_core
    printf1.o(i.__0snprintf$1) refers to printf1.o(i._snputc) for _snputc
    printf1.o(i.__0sprintf$1) refers to printf1.o(i._printf_core) for _printf_core
    printf1.o(i.__0sprintf$1) refers to printf1.o(i._sputc) for _sputc
    printf1.o(i.__0vfprintf$1) refers to printf1.o(i._printf_core) for _printf_core
    printf1.o(i.__0vfprintf$1) refers to bsp_uartcomm.o(.text) for fputc
    printf1.o(i.__0vprintf$1) refers to printf1.o(i._printf_core) for _printf_core
    printf1.o(i.__0vprintf$1) refers to bsp_uartcomm.o(.text) for fputc
    printf1.o(i.__0vprintf$1) refers to stdout.o(.data) for __stdout
    printf1.o(i.__0vsnprintf$1) refers to printf1.o(i._printf_core) for _printf_core
    printf1.o(i.__0vsnprintf$1) refers to printf1.o(i._snputc) for _snputc
    printf1.o(i.__0vsprintf$1) refers to printf1.o(i._printf_core) for _printf_core
    printf1.o(i.__0vsprintf$1) refers to printf1.o(i._sputc) for _sputc
    printf1.o(i._printf_core) refers to uidiv.o(.text) for __aeabi_uidivmod
    printf2.o(i.__0fprintf$2) refers to printf2.o(i._printf_core) for _printf_core
    printf2.o(i.__0fprintf$2) refers to bsp_uartcomm.o(.text) for fputc
    printf2.o(i.__0printf$2) refers to printf2.o(i._printf_core) for _printf_core
    printf2.o(i.__0printf$2) refers to bsp_uartcomm.o(.text) for fputc
    printf2.o(i.__0printf$2) refers to stdout.o(.data) for __stdout
    printf2.o(i.__0snprintf$2) refers to printf2.o(i._printf_core) for _printf_core
    printf2.o(i.__0snprintf$2) refers to printf2.o(i._snputc) for _snputc
    printf2.o(i.__0sprintf$2) refers to printf2.o(i._printf_core) for _printf_core
    printf2.o(i.__0sprintf$2) refers to printf2.o(i._sputc) for _sputc
    printf2.o(i.__0vfprintf$2) refers to printf2.o(i._printf_core) for _printf_core
    printf2.o(i.__0vfprintf$2) refers to bsp_uartcomm.o(.text) for fputc
    printf2.o(i.__0vprintf$2) refers to printf2.o(i._printf_core) for _printf_core
    printf2.o(i.__0vprintf$2) refers to bsp_uartcomm.o(.text) for fputc
    printf2.o(i.__0vprintf$2) refers to stdout.o(.data) for __stdout
    printf2.o(i.__0vsnprintf$2) refers to printf2.o(i._printf_core) for _printf_core
    printf2.o(i.__0vsnprintf$2) refers to printf2.o(i._snputc) for _snputc
    printf2.o(i.__0vsprintf$2) refers to printf2.o(i._printf_core) for _printf_core
    printf2.o(i.__0vsprintf$2) refers to printf2.o(i._sputc) for _sputc
    printf3.o(i.__0fprintf$3) refers to printf3.o(i._printf_core) for _printf_core
    printf3.o(i.__0fprintf$3) refers to bsp_uartcomm.o(.text) for fputc
    printf3.o(i.__0printf$3) refers to printf3.o(i._printf_core) for _printf_core
    printf3.o(i.__0printf$3) refers to bsp_uartcomm.o(.text) for fputc
    printf3.o(i.__0printf$3) refers to stdout.o(.data) for __stdout
    printf3.o(i.__0snprintf$3) refers to printf3.o(i._printf_core) for _printf_core
    printf3.o(i.__0snprintf$3) refers to printf3.o(i._snputc) for _snputc
    printf3.o(i.__0sprintf$3) refers to printf3.o(i._printf_core) for _printf_core
    printf3.o(i.__0sprintf$3) refers to printf3.o(i._sputc) for _sputc
    printf3.o(i.__0vfprintf$3) refers to printf3.o(i._printf_core) for _printf_core
    printf3.o(i.__0vfprintf$3) refers to bsp_uartcomm.o(.text) for fputc
    printf3.o(i.__0vprintf$3) refers to printf3.o(i._printf_core) for _printf_core
    printf3.o(i.__0vprintf$3) refers to bsp_uartcomm.o(.text) for fputc
    printf3.o(i.__0vprintf$3) refers to stdout.o(.data) for __stdout
    printf3.o(i.__0vsnprintf$3) refers to printf3.o(i._printf_core) for _printf_core
    printf3.o(i.__0vsnprintf$3) refers to printf3.o(i._snputc) for _snputc
    printf3.o(i.__0vsprintf$3) refers to printf3.o(i._printf_core) for _printf_core
    printf3.o(i.__0vsprintf$3) refers to printf3.o(i._sputc) for _sputc
    printf3.o(i._printf_core) refers to uidiv.o(.text) for __aeabi_uidivmod
    printf4.o(i.__0fprintf$4) refers to printf4.o(i._printf_core) for _printf_core
    printf4.o(i.__0fprintf$4) refers to bsp_uartcomm.o(.text) for fputc
    printf4.o(i.__0printf$4) refers to printf4.o(i._printf_core) for _printf_core
    printf4.o(i.__0printf$4) refers to bsp_uartcomm.o(.text) for fputc
    printf4.o(i.__0printf$4) refers to stdout.o(.data) for __stdout
    printf4.o(i.__0snprintf$4) refers to printf4.o(i._printf_core) for _printf_core
    printf4.o(i.__0snprintf$4) refers to printf4.o(i._snputc) for _snputc
    printf4.o(i.__0sprintf$4) refers to printf4.o(i._printf_core) for _printf_core
    printf4.o(i.__0sprintf$4) refers to printf4.o(i._sputc) for _sputc
    printf4.o(i.__0vfprintf$4) refers to printf4.o(i._printf_core) for _printf_core
    printf4.o(i.__0vfprintf$4) refers to bsp_uartcomm.o(.text) for fputc
    printf4.o(i.__0vprintf$4) refers to printf4.o(i._printf_core) for _printf_core
    printf4.o(i.__0vprintf$4) refers to bsp_uartcomm.o(.text) for fputc
    printf4.o(i.__0vprintf$4) refers to stdout.o(.data) for __stdout
    printf4.o(i.__0vsnprintf$4) refers to printf4.o(i._printf_core) for _printf_core
    printf4.o(i.__0vsnprintf$4) refers to printf4.o(i._snputc) for _snputc
    printf4.o(i.__0vsprintf$4) refers to printf4.o(i._printf_core) for _printf_core
    printf4.o(i.__0vsprintf$4) refers to printf4.o(i._sputc) for _sputc
    printf4.o(i._printf_core) refers to uldiv.o(.text) for __aeabi_uldivmod
    printf5.o(i.__0fprintf$5) refers to printf5.o(i._printf_core) for _printf_core
    printf5.o(i.__0fprintf$5) refers to bsp_uartcomm.o(.text) for fputc
    printf5.o(i.__0printf$5) refers to printf5.o(i._printf_core) for _printf_core
    printf5.o(i.__0printf$5) refers to bsp_uartcomm.o(.text) for fputc
    printf5.o(i.__0printf$5) refers to stdout.o(.data) for __stdout
    printf5.o(i.__0snprintf$5) refers to printf5.o(i._printf_core) for _printf_core
    printf5.o(i.__0snprintf$5) refers to printf5.o(i._snputc) for _snputc
    printf5.o(i.__0sprintf$5) refers to printf5.o(i._printf_core) for _printf_core
    printf5.o(i.__0sprintf$5) refers to printf5.o(i._sputc) for _sputc
    printf5.o(i.__0vfprintf$5) refers to printf5.o(i._printf_core) for _printf_core
    printf5.o(i.__0vfprintf$5) refers to bsp_uartcomm.o(.text) for fputc
    printf5.o(i.__0vprintf$5) refers to printf5.o(i._printf_core) for _printf_core
    printf5.o(i.__0vprintf$5) refers to bsp_uartcomm.o(.text) for fputc
    printf5.o(i.__0vprintf$5) refers to stdout.o(.data) for __stdout
    printf5.o(i.__0vsnprintf$5) refers to printf5.o(i._printf_core) for _printf_core
    printf5.o(i.__0vsnprintf$5) refers to printf5.o(i._snputc) for _snputc
    printf5.o(i.__0vsprintf$5) refers to printf5.o(i._printf_core) for _printf_core
    printf5.o(i.__0vsprintf$5) refers to printf5.o(i._sputc) for _sputc
    printf5.o(i._printf_core) refers to uldiv.o(.text) for __aeabi_uldivmod
    printf6.o(i.__0fprintf$6) refers to printf6.o(i._printf_core) for _printf_core
    printf6.o(i.__0fprintf$6) refers to bsp_uartcomm.o(.text) for fputc
    printf6.o(i.__0printf$6) refers to printf6.o(i._printf_core) for _printf_core
    printf6.o(i.__0printf$6) refers to bsp_uartcomm.o(.text) for fputc
    printf6.o(i.__0printf$6) refers to stdout.o(.data) for __stdout
    printf6.o(i.__0snprintf$6) refers to printf6.o(i._printf_core) for _printf_core
    printf6.o(i.__0snprintf$6) refers to printf6.o(i._snputc) for _snputc
    printf6.o(i.__0sprintf$6) refers to printf6.o(i._printf_core) for _printf_core
    printf6.o(i.__0sprintf$6) refers to printf6.o(i._sputc) for _sputc
    printf6.o(i.__0vfprintf$6) refers to printf6.o(i._printf_core) for _printf_core
    printf6.o(i.__0vfprintf$6) refers to bsp_uartcomm.o(.text) for fputc
    printf6.o(i.__0vprintf$6) refers to printf6.o(i._printf_core) for _printf_core
    printf6.o(i.__0vprintf$6) refers to bsp_uartcomm.o(.text) for fputc
    printf6.o(i.__0vprintf$6) refers to stdout.o(.data) for __stdout
    printf6.o(i.__0vsnprintf$6) refers to printf6.o(i._printf_core) for _printf_core
    printf6.o(i.__0vsnprintf$6) refers to printf6.o(i._snputc) for _snputc
    printf6.o(i.__0vsprintf$6) refers to printf6.o(i._printf_core) for _printf_core
    printf6.o(i.__0vsprintf$6) refers to printf6.o(i._sputc) for _sputc
    printf6.o(i._printf_core) refers to printf6.o(i._printf_pre_padding) for _printf_pre_padding
    printf6.o(i._printf_core) refers to uidiv.o(.text) for __aeabi_uidivmod
    printf6.o(i._printf_core) refers to printf6.o(i._printf_post_padding) for _printf_post_padding
    printf7.o(i.__0fprintf$7) refers to printf7.o(i._printf_core) for _printf_core
    printf7.o(i.__0fprintf$7) refers to bsp_uartcomm.o(.text) for fputc
    printf7.o(i.__0printf$7) refers to printf7.o(i._printf_core) for _printf_core
    printf7.o(i.__0printf$7) refers to bsp_uartcomm.o(.text) for fputc
    printf7.o(i.__0printf$7) refers to stdout.o(.data) for __stdout
    printf7.o(i.__0snprintf$7) refers to printf7.o(i._printf_core) for _printf_core
    printf7.o(i.__0snprintf$7) refers to printf7.o(i._snputc) for _snputc
    printf7.o(i.__0sprintf$7) refers to printf7.o(i._printf_core) for _printf_core
    printf7.o(i.__0sprintf$7) refers to printf7.o(i._sputc) for _sputc
    printf7.o(i.__0vfprintf$7) refers to printf7.o(i._printf_core) for _printf_core
    printf7.o(i.__0vfprintf$7) refers to bsp_uartcomm.o(.text) for fputc
    printf7.o(i.__0vprintf$7) refers to printf7.o(i._printf_core) for _printf_core
    printf7.o(i.__0vprintf$7) refers to bsp_uartcomm.o(.text) for fputc
    printf7.o(i.__0vprintf$7) refers to stdout.o(.data) for __stdout
    printf7.o(i.__0vsnprintf$7) refers to printf7.o(i._printf_core) for _printf_core
    printf7.o(i.__0vsnprintf$7) refers to printf7.o(i._snputc) for _snputc
    printf7.o(i.__0vsprintf$7) refers to printf7.o(i._printf_core) for _printf_core
    printf7.o(i.__0vsprintf$7) refers to printf7.o(i._sputc) for _sputc
    printf7.o(i._printf_core) refers to printf7.o(i._printf_pre_padding) for _printf_pre_padding
    printf7.o(i._printf_core) refers to uldiv.o(.text) for __aeabi_uldivmod
    printf7.o(i._printf_core) refers to printf7.o(i._printf_post_padding) for _printf_post_padding
    printf8.o(i.__0fprintf$8) refers to printf8.o(i._printf_core) for _printf_core
    printf8.o(i.__0fprintf$8) refers to bsp_uartcomm.o(.text) for fputc
    printf8.o(i.__0printf$8) refers to printf8.o(i._printf_core) for _printf_core
    printf8.o(i.__0printf$8) refers to bsp_uartcomm.o(.text) for fputc
    printf8.o(i.__0printf$8) refers to stdout.o(.data) for __stdout
    printf8.o(i.__0snprintf$8) refers to printf8.o(i._printf_core) for _printf_core
    printf8.o(i.__0snprintf$8) refers to printf8.o(i._snputc) for _snputc
    printf8.o(i.__0sprintf$8) refers to printf8.o(i._printf_core) for _printf_core
    printf8.o(i.__0sprintf$8) refers to printf8.o(i._sputc) for _sputc
    printf8.o(i.__0vfprintf$8) refers to printf8.o(i._printf_core) for _printf_core
    printf8.o(i.__0vfprintf$8) refers to bsp_uartcomm.o(.text) for fputc
    printf8.o(i.__0vprintf$8) refers to printf8.o(i._printf_core) for _printf_core
    printf8.o(i.__0vprintf$8) refers to bsp_uartcomm.o(.text) for fputc
    printf8.o(i.__0vprintf$8) refers to stdout.o(.data) for __stdout
    printf8.o(i.__0vsnprintf$8) refers to printf8.o(i._printf_core) for _printf_core
    printf8.o(i.__0vsnprintf$8) refers to printf8.o(i._snputc) for _snputc
    printf8.o(i.__0vsprintf$8) refers to printf8.o(i._printf_core) for _printf_core
    printf8.o(i.__0vsprintf$8) refers to printf8.o(i._sputc) for _sputc
    printf8.o(i._printf_core) refers to printf8.o(i._printf_pre_padding) for _printf_pre_padding
    printf8.o(i._printf_core) refers to uldiv.o(.text) for __aeabi_uldivmod
    printf8.o(i._printf_core) refers to printf8.o(i._printf_post_padding) for _printf_post_padding
    printfa.o(i.__0fprintf) refers (Special) to iusefp.o(.text) for __I$use$fp
    printfa.o(i.__0fprintf) refers to printfa.o(i._printf_core) for _printf_core
    printfa.o(i.__0fprintf) refers to bsp_uartcomm.o(.text) for fputc
    printfa.o(i.__0printf) refers (Special) to iusefp.o(.text) for __I$use$fp
    printfa.o(i.__0printf) refers to printfa.o(i._printf_core) for _printf_core
    printfa.o(i.__0printf) refers to bsp_uartcomm.o(.text) for fputc
    printfa.o(i.__0printf) refers to stdout.o(.data) for __stdout
    printfa.o(i.__0snprintf) refers (Special) to iusefp.o(.text) for __I$use$fp
    printfa.o(i.__0snprintf) refers to printfa.o(i._printf_core) for _printf_core
    printfa.o(i.__0snprintf) refers to printfa.o(i._snputc) for _snputc
    printfa.o(i.__0sprintf) refers (Special) to iusefp.o(.text) for __I$use$fp
    printfa.o(i.__0sprintf) refers to printfa.o(i._printf_core) for _printf_core
    printfa.o(i.__0sprintf) refers to printfa.o(i._sputc) for _sputc
    printfa.o(i.__0vfprintf) refers (Special) to iusefp.o(.text) for __I$use$fp
    printfa.o(i.__0vfprintf) refers to printfa.o(i._printf_core) for _printf_core
    printfa.o(i.__0vfprintf) refers to bsp_uartcomm.o(.text) for fputc
    printfa.o(i.__0vprintf) refers (Special) to iusefp.o(.text) for __I$use$fp
    printfa.o(i.__0vprintf) refers to printfa.o(i._printf_core) for _printf_core
    printfa.o(i.__0vprintf) refers to bsp_uartcomm.o(.text) for fputc
    printfa.o(i.__0vprintf) refers to stdout.o(.data) for __stdout
    printfa.o(i.__0vsnprintf) refers (Special) to iusefp.o(.text) for __I$use$fp
    printfa.o(i.__0vsnprintf) refers to printfa.o(i._printf_core) for _printf_core
    printfa.o(i.__0vsnprintf) refers to printfa.o(i._snputc) for _snputc
    printfa.o(i.__0vsprintf) refers (Special) to iusefp.o(.text) for __I$use$fp
    printfa.o(i.__0vsprintf) refers to printfa.o(i._printf_core) for _printf_core
    printfa.o(i.__0vsprintf) refers to printfa.o(i._sputc) for _sputc
    printfa.o(i._fp_digits) refers (Special) to iusefp.o(.text) for __I$use$fp
    printfa.o(i._fp_digits) refers to dmul.o(.text) for __aeabi_dmul
    printfa.o(i._fp_digits) refers to ddiv.o(.text) for __aeabi_ddiv
    printfa.o(i._fp_digits) refers to cdrcmple.o(.text) for __aeabi_cdrcmple
    printfa.o(i._fp_digits) refers to dadd.o(.text) for __aeabi_dadd
    printfa.o(i._fp_digits) refers to dfixul.o(.text) for __aeabi_d2ulz
    printfa.o(i._fp_digits) refers to uldiv.o(.text) for __aeabi_uldivmod
    printfa.o(i._printf_core) refers (Special) to iusefp.o(.text) for __I$use$fp
    printfa.o(i._printf_core) refers to printfa.o(i._printf_pre_padding) for _printf_pre_padding
    printfa.o(i._printf_core) refers to uldiv.o(.text) for __aeabi_uldivmod
    printfa.o(i._printf_core) refers to printfa.o(i._printf_post_padding) for _printf_post_padding
    printfa.o(i._printf_core) refers to printfa.o(i._fp_digits) for _fp_digits
    printfa.o(i._printf_core) refers to uidiv.o(.text) for __aeabi_uidivmod
    printfa.o(i._printf_post_padding) refers (Special) to iusefp.o(.text) for __I$use$fp
    printfa.o(i._printf_pre_padding) refers (Special) to iusefp.o(.text) for __I$use$fp
    printfa.o(i._snputc) refers (Special) to iusefp.o(.text) for __I$use$fp
    printfa.o(i._sputc) refers (Special) to iusefp.o(.text) for __I$use$fp
    malloc.o(i.free) refers to mvars.o(.data) for __microlib_freelist
    malloc.o(i.malloc) refers to mvars.o(.data) for __microlib_freelist_initialised
    malloc.o(i.malloc) refers to mvars.o(.data) for __microlib_freelist
    malloc.o(i.malloc) refers to startup_gd32f30x_cl.o(HEAP) for __heap_base
    mallocr.o(i.__free$realloc) refers to mvars.o(.data) for __microlib_freelist
    mallocr.o(i.__malloc$realloc) refers to mallocr.o(i.internal_alloc) for internal_alloc
    mallocr.o(i.__malloc$realloc) refers to mvars.o(.data) for __microlib_freelist_initialised
    mallocr.o(i.__malloc$realloc) refers to startup_gd32f30x_cl.o(HEAP) for __heap_base
    mallocr.o(i.__malloc$realloc) refers to mvars.o(.data) for __microlib_freelist
    mallocr.o(i.internal_alloc) refers to memcpya.o(.text) for __aeabi_memcpy
    mallocr.o(i.internal_alloc) refers to mvars.o(.data) for __microlib_freelist
    mallocr.o(i.realloc) refers to mallocr.o(i.__free$realloc) for free
    mallocr.o(i.realloc) refers to mallocr.o(i.internal_alloc) for internal_alloc
    mallocr.o(i.realloc) refers to mallocr.o(i.__malloc$realloc) for malloc
    mallocr.o(i.realloc) refers to mvars.o(.data) for __microlib_freelist
    malloca.o(i.__aligned_malloc) refers to mvars.o(.data) for __microlib_freelist_initialised
    malloca.o(i.__aligned_malloc) refers to mvars.o(.data) for __microlib_freelist
    malloca.o(i.__aligned_malloc) refers to startup_gd32f30x_cl.o(HEAP) for __heap_base
    malloca.o(i.__free$memalign) refers to mvars.o(.data) for __microlib_freelist
    malloca.o(i.__malloc$memalign) refers to malloca.o(i.__aligned_malloc) for __aligned_malloc
    mallocra.o(i.__aligned_malloc$realloc) refers to mallocra.o(i.internal_alloc) for internal_alloc
    mallocra.o(i.__aligned_malloc$realloc) refers to mvars.o(.data) for __microlib_freelist_initialised
    mallocra.o(i.__aligned_malloc$realloc) refers to startup_gd32f30x_cl.o(HEAP) for __heap_base
    mallocra.o(i.__aligned_malloc$realloc) refers to mvars.o(.data) for __microlib_freelist
    mallocra.o(i.__free$realloc$memalign) refers to mvars.o(.data) for __microlib_freelist
    mallocra.o(i.__malloc$realloc$memalign) refers to mallocra.o(i.__aligned_malloc$realloc) for __aligned_malloc$realloc
    mallocra.o(i.__realloc$memalign) refers to mallocra.o(i.__free$realloc$memalign) for __free$realloc$memalign
    mallocra.o(i.__realloc$memalign) refers to mallocra.o(i.internal_alloc) for internal_alloc
    mallocra.o(i.__realloc$memalign) refers to mallocra.o(i.__malloc$realloc$memalign) for __malloc$realloc$memalign
    mallocra.o(i.__realloc$memalign) refers to mvars.o(.data) for __microlib_freelist
    mallocra.o(i.internal_alloc) refers to memcpya.o(.text) for __aeabi_memcpy
    mallocra.o(i.internal_alloc) refers to mvars.o(.data) for __microlib_freelist
    __0sscanf.o(.text) refers to scanf_char.o(.text) for __vfscanf_char
    __0sscanf.o(.text) refers to _sgetc.o(.text) for _sgetc
    _scanf_int.o(.text) refers to _chval.o(.text) for _chval
    scanf_fp.o(.text) refers (Special) to iusefp.o(.text) for __I$use$fp
    scanf_fp.o(.text) refers to dfltul.o(.text) for __aeabi_ul2d
    scanf_fp.o(.text) refers to dmul.o(.text) for __aeabi_dmul
    scanf_fp.o(.text) refers to ddiv.o(.text) for __aeabi_ddiv
    scanf_fp.o(.text) refers to scanf_fp.o(i._is_digit) for _is_digit
    scanf_fp.o(.text) refers to d2f.o(.text) for __aeabi_d2f
    strtol.o(.text) refers to ctype_o.o(.text) for __rt_ctype_table
    strtol.o(.text) refers to _strtoul.o(.text) for _strtoul
    strtol.o(.text) refers to errno.o(i.__aeabi_errno_addr) for __aeabi_errno_addr
    atoi.o(.text) refers to errno.o(i.__aeabi_errno_addr) for __aeabi_errno_addr
    atoi.o(.text) refers to strtol.o(.text) for strtol
    dadd.o(.text) refers (Special) to iusefp.o(.text) for __I$use$fp
    dadd.o(.text) refers to llshl.o(.text) for __aeabi_llsl
    dadd.o(.text) refers to llsshr.o(.text) for __aeabi_lasr
    dadd.o(.text) refers to depilogue.o(.text) for _double_epilogue
    dmul.o(.text) refers (Special) to iusefp.o(.text) for __I$use$fp
    dmul.o(.text) refers to depilogue.o(.text) for _double_epilogue
    ddiv.o(.text) refers (Special) to iusefp.o(.text) for __I$use$fp
    ddiv.o(.text) refers to depilogue.o(.text) for _double_round
    dflti.o(.text) refers (Special) to iusefp.o(.text) for __I$use$fp
    dflti.o(.text) refers to depilogue.o(.text) for _double_epilogue
    dfixi.o(.text) refers (Special) to iusefp.o(.text) for __I$use$fp
    dfixi.o(.text) refers to llushr.o(.text) for __aeabi_llsr
    dfixui.o(.text) refers (Special) to iusefp.o(.text) for __I$use$fp
    dfixui.o(.text) refers to llushr.o(.text) for __aeabi_llsr
    f2d.o(.text) refers (Special) to iusefp.o(.text) for __I$use$fp
    cdcmple.o(.text) refers (Special) to iusefp.o(.text) for __I$use$fp
    cdrcmple.o(.text) refers (Special) to iusefp.o(.text) for __I$use$fp
    d2f.o(.text) refers (Special) to iusefp.o(.text) for __I$use$fp
    d2f.o(.text) refers to fepilogue.o(.text) for _float_round
    dunder.o(i.__mathlib_dbl_divzero) refers to ddiv.o(.text) for __aeabi_ddiv
    dunder.o(i.__mathlib_dbl_infnan) refers to dadd.o(.text) for __aeabi_dadd
    dunder.o(i.__mathlib_dbl_infnan2) refers to dadd.o(.text) for __aeabi_dadd
    dunder.o(i.__mathlib_dbl_invalid) refers to ddiv.o(.text) for __aeabi_ddiv
    dunder.o(i.__mathlib_dbl_overflow) refers to dmul.o(.text) for __aeabi_dmul
    dunder.o(i.__mathlib_dbl_posinfnan) refers to dmul.o(.text) for __aeabi_dmul
    dunder.o(i.__mathlib_dbl_underflow) refers to dmul.o(.text) for __aeabi_dmul
    fpclassify.o(i.__ARM_fpclassify) refers (Special) to iusefp.o(.text) for __I$use$fp
    poly.o(i.__kernel_poly) refers (Special) to iusefp.o(.text) for __I$use$fp
    poly.o(i.__kernel_poly) refers to dmul.o(.text) for __aeabi_dmul
    poly.o(i.__kernel_poly) refers to dadd.o(.text) for __aeabi_dadd
    qnan.o(.constdata) refers (Special) to iusefp.o(.text) for __I$use$fp
    sqrt.o(i.__hardfp_sqrt) refers (Special) to iusefp.o(.text) for __I$use$fp
    sqrt.o(i.__hardfp_sqrt) refers to dsqrt.o(.text) for _dsqrt
    sqrt.o(i.__hardfp_sqrt) refers to errno.o(i.__set_errno) for __set_errno
    sqrt.o(i.__softfp_sqrt) refers (Special) to iusefp.o(.text) for __I$use$fp
    sqrt.o(i.__softfp_sqrt) refers to dsqrt.o(.text) for _dsqrt
    sqrt.o(i.__softfp_sqrt) refers to errno.o(i.__set_errno) for __set_errno
    sqrt.o(i.sqrt) refers (Special) to iusefp.o(.text) for __I$use$fp
    sqrt.o(i.sqrt) refers to dsqrt.o(.text) for _dsqrt
    sqrt.o(i.sqrt) refers to errno.o(i.__set_errno) for __set_errno
    sqrt_x.o(i.____hardfp_sqrt$lsc) refers (Special) to iusefp.o(.text) for __I$use$fp
    sqrt_x.o(i.____hardfp_sqrt$lsc) refers to cdcmple.o(.text) for __aeabi_cdcmple
    sqrt_x.o(i.____hardfp_sqrt$lsc) refers to errno.o(i.__set_errno) for __set_errno
    sqrt_x.o(i.____hardfp_sqrt$lsc) refers to dsqrt.o(.text) for _dsqrt
    sqrt_x.o(i.____softfp_sqrt$lsc) refers (Special) to iusefp.o(.text) for __I$use$fp
    sqrt_x.o(i.____softfp_sqrt$lsc) refers to cdcmple.o(.text) for __aeabi_cdcmple
    sqrt_x.o(i.____softfp_sqrt$lsc) refers to errno.o(i.__set_errno) for __set_errno
    sqrt_x.o(i.____softfp_sqrt$lsc) refers to dsqrt.o(.text) for _dsqrt
    sqrt_x.o(i.__sqrt$lsc) refers (Special) to iusefp.o(.text) for __I$use$fp
    sqrt_x.o(i.__sqrt$lsc) refers to cdcmple.o(.text) for __aeabi_cdcmple
    sqrt_x.o(i.__sqrt$lsc) refers to errno.o(i.__set_errno) for __set_errno
    sqrt_x.o(i.__sqrt$lsc) refers to dsqrt.o(.text) for _dsqrt
    entry2.o(.ARM.Collect$$$$00000001) refers to entry2.o(.ARM.Collect$$$$00002712) for __lit__00000000
    entry2.o(.ARM.Collect$$$$00002712) refers to startup_gd32f30x_cl.o(STACK) for __initial_sp
    entry2.o(__vectab_stack_and_reset_area) refers to startup_gd32f30x_cl.o(STACK) for __initial_sp
    entry2.o(__vectab_stack_and_reset_area) refers to entry.o(.ARM.Collect$$$$00000000) for __main
    entry5.o(.ARM.Collect$$$$00000004) refers to init.o(.text) for __scatterload
    entry9a.o(.ARM.Collect$$$$0000000B) refers to main.o(.text) for main
    entry9b.o(.ARM.Collect$$$$0000000C) refers to main.o(.text) for main
    uldiv.o(.text) refers to llushr.o(.text) for __aeabi_llsr
    uldiv.o(.text) refers to llshl.o(.text) for __aeabi_llsl
    ctype_o.o(.text) refers to ctype_o.o(.constdata) for .constdata
    ctype_o.o(.constdata) refers to ctype_o.o(.constdata) for __ctype_table
    isalnum_o.o(.text) refers to ctype_o.o(.text) for __rt_ctype_table
    isalpha_o.o(.text) refers to ctype_o.o(.text) for __rt_ctype_table
    isblank_o.o(.text) refers to ctype_o.o(.constdata) for __ctype_table
    iscntrl_o.o(.text) refers to ctype_o.o(.text) for __rt_ctype_table
    isdigit_o.o(.text) refers to ctype_o.o(.text) for __rt_ctype_table
    isgraph_o.o(.text) refers to ctype_o.o(.text) for __rt_ctype_table
    islower_o.o(.text) refers to ctype_o.o(.text) for __rt_ctype_table
    isprint_o.o(.text) refers to ctype_o.o(.text) for __rt_ctype_table
    ispunct_o.o(.text) refers to ctype_o.o(.text) for __rt_ctype_table
    isspace_o.o(.text) refers to ctype_o.o(.text) for __rt_ctype_table
    isupper_o.o(.text) refers to ctype_o.o(.text) for __rt_ctype_table
    isxdigit_o.o(.text) refers to ctype_o.o(.text) for __rt_ctype_table
    errno.o(i.__aeabi_errno_addr) refers to errno.o(.data) for .data
    errno.o(i.__read_errno) refers to errno.o(.data) for .data
    errno.o(i.__set_errno) refers to errno.o(.data) for .data
    scanf_char.o(.text) refers to _scanf.o(.text) for __vfscanf
    scanf_char.o(.text) refers to isspace_o.o(.text) for isspace
    _strtoul.o(.text) refers to _chval.o(.text) for _chval
    _strtoul.o(.text) refers to errno.o(i.__aeabi_errno_addr) for __aeabi_errno_addr
    strtod.o(.text) refers to scanf_fp.o(.text) for _scanf_real
    strtod.o(.text) refers to _sgetc.o(.text) for _sgetc
    strtod.o(.text) refers to isspace_o.o(.text) for isspace
    depilogue.o(.text) refers to llshl.o(.text) for __aeabi_llsl
    depilogue.o(.text) refers to llushr.o(.text) for __aeabi_llsr
    dfltul.o(.text) refers to depilogue.o(.text) for _double_epilogue
    dfixul.o(.text) refers to llushr.o(.text) for __aeabi_llsr
    dfixul.o(.text) refers to llshl.o(.text) for __aeabi_llsl
    init.o(.text) refers to entry5.o(.ARM.Collect$$$$00000004) for __main_after_scatterload
    isspace_c.o(.text) refers to ctype_c.o(.text) for __ctype_lookup
    _scanf.o(.text) refers (Weak) to scanf_fp.o(.text) for _scanf_real
    _scanf.o(.text) refers (Weak) to _scanf_int.o(.text) for _scanf_int
    dsqrt.o(.text) refers to llushr.o(.text) for __aeabi_llsr
    dsqrt.o(.text) refers to depilogue.o(.text) for _double_round
    ctype_c.o(.text) refers to ctype_c.o(.constdata) for .constdata
    scanf_fp.o(i._is_digit) refers (Special) to iusefp.o(.text) for __I$use$fp


==============================================================================

Removing Unused input sections from the image.

    Removing gd32f30x_it.o(.rev16_text), (4 bytes).
    Removing gd32f30x_it.o(.revsh_text), (4 bytes).
    Removing main.o(.rev16_text), (4 bytes).
    Removing main.o(.revsh_text), (4 bytes).
    Removing systick.o(.rev16_text), (4 bytes).
    Removing systick.o(.revsh_text), (4 bytes).
    Removing systick.o(.data), (4 bytes).
    Removing gd32f30x_platform.o(.rev16_text), (4 bytes).
    Removing gd32f30x_platform.o(.revsh_text), (4 bytes).
    Removing api_subdevices.o(.rev16_text), (4 bytes).
    Removing api_subdevices.o(.revsh_text), (4 bytes).
    Removing dev_main.o(.rev16_text), (4 bytes).
    Removing dev_main.o(.revsh_text), (4 bytes).
    Removing dev_net.o(.rev16_text), (4 bytes).
    Removing dev_net.o(.revsh_text), (4 bytes).
    Removing dev_power.o(.rev16_text), (4 bytes).
    Removing dev_power.o(.revsh_text), (4 bytes).
    Removing dev_storage0.o(.rev16_text), (4 bytes).
    Removing dev_storage0.o(.revsh_text), (4 bytes).
    Removing dev_switch.o(.rev16_text), (4 bytes).
    Removing dev_switch.o(.revsh_text), (4 bytes).
    Removing api_adc.o(.rev16_text), (4 bytes).
    Removing api_adc.o(.revsh_text), (4 bytes).
    Removing api_fan.o(.rev16_text), (4 bytes).
    Removing api_fan.o(.revsh_text), (4 bytes).
    Removing api_fan.o(.data), (4 bytes).
    Removing pid.o(.text), (168 bytes).
    Removing api_tmp.o(.rev16_text), (4 bytes).
    Removing api_tmp.o(.revsh_text), (4 bytes).
    Removing api_tmp.o(.text), (492 bytes).
    Removing api_tmp.o(.data), (4 bytes).
    Removing api_cpu.o(.rev16_text), (4 bytes).
    Removing api_cpu.o(.revsh_text), (4 bytes).
    Removing api_utc.o(.rev16_text), (4 bytes).
    Removing api_utc.o(.revsh_text), (4 bytes).
    Removing tools.o(.rev16_text), (4 bytes).
    Removing tools.o(.revsh_text), (4 bytes).
    Removing hwd1668.o(.rev16_text), (4 bytes).
    Removing hwd1668.o(.revsh_text), (4 bytes).
    Removing hwd1668.o(.text), (216 bytes).
    Removing fifo.o(.rev16_text), (4 bytes).
    Removing fifo.o(.revsh_text), (4 bytes).
    Removing filo.o(.rev16_text), (4 bytes).
    Removing filo.o(.revsh_text), (4 bytes).
    Removing filo.o(.text), (134 bytes).
    Removing api_sensor.o(.rev16_text), (4 bytes).
    Removing api_sensor.o(.revsh_text), (4 bytes).
    Removing cjson.o(.rev16_text), (4 bytes).
    Removing cjson.o(.revsh_text), (4 bytes).
    Removing log.o(.rev16_text), (4 bytes).
    Removing log.o(.revsh_text), (4 bytes).
    Removing ipmbmsghndlr.o(.rev16_text), (4 bytes).
    Removing ipmbmsghndlr.o(.revsh_text), (4 bytes).
    Removing ipmbmsghndlr.o(.text), (14 bytes).
    Removing serialifc.o(.rev16_text), (4 bytes).
    Removing serialifc.o(.revsh_text), (4 bytes).
    Removing serial.o(.rev16_text), (4 bytes).
    Removing serial.o(.revsh_text), (4 bytes).
    Removing rmcp.o(.rev16_text), (4 bytes).
    Removing rmcp.o(.revsh_text), (4 bytes).
    Removing rmcp.o(.text), (1040 bytes).
    Removing rmcp.o(.constdata), (20 bytes).
    Removing rmcp.o(.data), (1 bytes).
    Removing chassisctrl.o(.rev16_text), (4 bytes).
    Removing chassisctrl.o(.revsh_text), (4 bytes).
    Removing msghndlr.o(.rev16_text), (4 bytes).
    Removing msghndlr.o(.revsh_text), (4 bytes).
    Removing app.o(.rev16_text), (4 bytes).
    Removing app.o(.revsh_text), (4 bytes).
    Removing appdevice.o(.rev16_text), (4 bytes).
    Removing appdevice.o(.revsh_text), (4 bytes).
    Removing appdevice.o(.data), (4 bytes).
    Removing chassis.o(.rev16_text), (4 bytes).
    Removing chassis.o(.revsh_text), (4 bytes).
    Removing oem.o(.rev16_text), (4 bytes).
    Removing oem.o(.revsh_text), (4 bytes).
    Removing sensorevent.o(.rev16_text), (4 bytes).
    Removing sensorevent.o(.revsh_text), (4 bytes).
    Removing sensor.o(.rev16_text), (4 bytes).
    Removing sensor.o(.revsh_text), (4 bytes).
    Removing storage.o(.rev16_text), (4 bytes).
    Removing storage.o(.revsh_text), (4 bytes).
    Removing sdr.o(.rev16_text), (4 bytes).
    Removing sdr.o(.revsh_text), (4 bytes).
    Removing ipmdevice.o(.rev16_text), (4 bytes).
    Removing ipmdevice.o(.revsh_text), (4 bytes).
    Removing bridge.o(.rev16_text), (4 bytes).
    Removing bridge.o(.revsh_text), (4 bytes).
    Removing chassisdevice.o(.rev16_text), (4 bytes).
    Removing chassisdevice.o(.revsh_text), (4 bytes).
    Removing chassisdevice.o(.constdata), (16 bytes).
    Removing chassisdevice.o(.data), (110 bytes).
    Removing sensor_helpers.o(.rev16_text), (4 bytes).
    Removing sensor_helpers.o(.revsh_text), (4 bytes).
    Removing bsp_adc.o(.rev16_text), (4 bytes).
    Removing bsp_adc.o(.revsh_text), (4 bytes).
    Removing bsp_capture.o(.rev16_text), (4 bytes).
    Removing bsp_capture.o(.revsh_text), (4 bytes).
    Removing bsp_i2c.o(.rev16_text), (4 bytes).
    Removing bsp_i2c.o(.revsh_text), (4 bytes).
    Removing bsp_i2c_gpio.o(.rev16_text), (4 bytes).
    Removing bsp_i2c_gpio.o(.revsh_text), (4 bytes).
    Removing bsp_i2c_gpio.o(.text), (1414 bytes).
    Removing bsp_led.o(.rev16_text), (4 bytes).
    Removing bsp_led.o(.revsh_text), (4 bytes).
    Removing bsp_led.o(.text), (52 bytes).
    Removing bsp_pwm.o(.rev16_text), (4 bytes).
    Removing bsp_pwm.o(.revsh_text), (4 bytes).
    Removing bsp_uart3.o(.rev16_text), (4 bytes).
    Removing bsp_uart3.o(.revsh_text), (4 bytes).
    Removing bsp_usart0.o(.rev16_text), (4 bytes).
    Removing bsp_usart0.o(.revsh_text), (4 bytes).
    Removing bsp_usart1.o(.rev16_text), (4 bytes).
    Removing bsp_usart1.o(.revsh_text), (4 bytes).
    Removing bsp_gpio.o(.rev16_text), (4 bytes).
    Removing bsp_gpio.o(.revsh_text), (4 bytes).
    Removing bsp_net_gpio.o(.rev16_text), (4 bytes).
    Removing bsp_net_gpio.o(.revsh_text), (4 bytes).
    Removing bsp_net_gpio.o(.text), (388 bytes).
    Removing bsp_timer.o(.rev16_text), (4 bytes).
    Removing bsp_timer.o(.revsh_text), (4 bytes).
    Removing bsp_uartcomm.o(.rev16_text), (4 bytes).
    Removing bsp_uartcomm.o(.revsh_text), (4 bytes).
    Removing system_gd32f30x.o(.rev16_text), (4 bytes).
    Removing system_gd32f30x.o(.revsh_text), (4 bytes).
    Removing gd32f30x_adc.o(.rev16_text), (4 bytes).
    Removing gd32f30x_adc.o(.revsh_text), (4 bytes).
    Removing gd32f30x_bkp.o(.rev16_text), (4 bytes).
    Removing gd32f30x_bkp.o(.revsh_text), (4 bytes).
    Removing gd32f30x_bkp.o(.text), (440 bytes).
    Removing gd32f30x_dma.o(.rev16_text), (4 bytes).
    Removing gd32f30x_dma.o(.revsh_text), (4 bytes).
    Removing gd32f30x_dma.o(.text), (1652 bytes).
    Removing gd32f30x_exti.o(.rev16_text), (4 bytes).
    Removing gd32f30x_exti.o(.revsh_text), (4 bytes).
    Removing gd32f30x_exti.o(.text), (364 bytes).
    Removing gd32f30x_gpio.o(.rev16_text), (4 bytes).
    Removing gd32f30x_gpio.o(.revsh_text), (4 bytes).
    Removing gd32f30x_fwdgt.o(.rev16_text), (4 bytes).
    Removing gd32f30x_fwdgt.o(.revsh_text), (4 bytes).
    Removing gd32f30x_fmc.o(.rev16_text), (4 bytes).
    Removing gd32f30x_fmc.o(.revsh_text), (4 bytes).
    Removing gd32f30x_fmc.o(.text), (2304 bytes).
    Removing gd32f30x_i2c.o(.rev16_text), (4 bytes).
    Removing gd32f30x_i2c.o(.revsh_text), (4 bytes).
    Removing gd32f30x_rtc.o(.rev16_text), (4 bytes).
    Removing gd32f30x_rtc.o(.revsh_text), (4 bytes).
    Removing gd32f30x_rtc.o(.text), (280 bytes).
    Removing gd32f30x_rcu.o(.rev16_text), (4 bytes).
    Removing gd32f30x_rcu.o(.revsh_text), (4 bytes).
    Removing gd32f30x_spi.o(.rev16_text), (4 bytes).
    Removing gd32f30x_spi.o(.revsh_text), (4 bytes).
    Removing gd32f30x_spi.o(.text), (948 bytes).
    Removing gd32f30x_timer.o(.rev16_text), (4 bytes).
    Removing gd32f30x_timer.o(.revsh_text), (4 bytes).
    Removing gd32f30x_misc.o(.rev16_text), (4 bytes).
    Removing gd32f30x_misc.o(.revsh_text), (4 bytes).
    Removing gd32f30x_usart.o(.rev16_text), (4 bytes).
    Removing gd32f30x_usart.o(.revsh_text), (4 bytes).
    Removing gd32f30x_wwdgt.o(.rev16_text), (4 bytes).
    Removing gd32f30x_wwdgt.o(.revsh_text), (4 bytes).
    Removing gd32f30x_wwdgt.o(.text), (120 bytes).
    Removing gd32f30x_dbg.o(.rev16_text), (4 bytes).
    Removing gd32f30x_dbg.o(.revsh_text), (4 bytes).
    Removing croutine.o(.rev16_text), (4 bytes).
    Removing croutine.o(.revsh_text), (4 bytes).
    Removing event_groups.o(.rev16_text), (4 bytes).
    Removing event_groups.o(.revsh_text), (4 bytes).
    Removing event_groups.o(.text), (1118 bytes).
    Removing list.o(.rev16_text), (4 bytes).
    Removing list.o(.revsh_text), (4 bytes).
    Removing queue.o(.rev16_text), (4 bytes).
    Removing queue.o(.revsh_text), (4 bytes).
    Removing tasks.o(.rev16_text), (4 bytes).
    Removing tasks.o(.revsh_text), (4 bytes).
    Removing timers.o(.rev16_text), (4 bytes).
    Removing timers.o(.revsh_text), (4 bytes).
    Removing heap_4.o(.rev16_text), (4 bytes).
    Removing heap_4.o(.revsh_text), (4 bytes).
    Removing port.o(.rev16_text), (4 bytes).
    Removing port.o(.revsh_text), (4 bytes).
    Removing shell.o(.rev16_text), (4 bytes).
    Removing shell.o(.revsh_text), (4 bytes).
    Removing shell_port.o(.rev16_text), (4 bytes).
    Removing shell_port.o(.revsh_text), (4 bytes).
    Removing dneg.o(.text), (6 bytes).

186 unused section(s) (total 11953 bytes) removed from the image.

==============================================================================

Image Symbol Table

    Local Symbols

    Symbol Name                              Value     Ov Type        Size  Object(Section)

    ../clib/../cmprslib/zerorunl2.c          0x00000000   Number         0  __dczerorl2.o ABSOLUTE
    ../clib/microlib/ctype/ctype.c           0x00000000   Number         0  isalnum_o.o ABSOLUTE
    ../clib/microlib/ctype/ctype.c           0x00000000   Number         0  islower_o.o ABSOLUTE
    ../clib/microlib/ctype/ctype.c           0x00000000   Number         0  ctype_o.o ABSOLUTE
    ../clib/microlib/ctype/ctype.c           0x00000000   Number         0  isspace_c.o ABSOLUTE
    ../clib/microlib/ctype/ctype.c           0x00000000   Number         0  iscntrl_o.o ABSOLUTE
    ../clib/microlib/ctype/ctype.c           0x00000000   Number         0  isgraph_o.o ABSOLUTE
    ../clib/microlib/ctype/ctype.c           0x00000000   Number         0  isdigit_o.o ABSOLUTE
    ../clib/microlib/ctype/ctype.c           0x00000000   Number         0  isxdigit_o.o ABSOLUTE
    ../clib/microlib/ctype/ctype.c           0x00000000   Number         0  isblank_o.o ABSOLUTE
    ../clib/microlib/ctype/ctype.c           0x00000000   Number         0  isupper_o.o ABSOLUTE
    ../clib/microlib/ctype/ctype.c           0x00000000   Number         0  isalpha_o.o ABSOLUTE
    ../clib/microlib/ctype/ctype.c           0x00000000   Number         0  isspace_o.o ABSOLUTE
    ../clib/microlib/ctype/ctype.c           0x00000000   Number         0  ispunct_o.o ABSOLUTE
    ../clib/microlib/ctype/ctype.c           0x00000000   Number         0  isprint_o.o ABSOLUTE
    ../clib/microlib/ctype/ctype.c           0x00000000   Number         0  ctype_c.o ABSOLUTE
    ../clib/microlib/ctype/tolower.c         0x00000000   Number         0  tolower.o ABSOLUTE
    ../clib/microlib/division.c              0x00000000   Number         0  uldiv.o ABSOLUTE
    ../clib/microlib/division.c              0x00000000   Number         0  uidiv.o ABSOLUTE
    ../clib/microlib/errno.c                 0x00000000   Number         0  errno.o ABSOLUTE
    ../clib/microlib/init/entry.s            0x00000000   Number         0  entry.o ABSOLUTE
    ../clib/microlib/init/entry.s            0x00000000   Number         0  entry12a.o ABSOLUTE
    ../clib/microlib/init/entry.s            0x00000000   Number         0  entry9b.o ABSOLUTE
    ../clib/microlib/init/entry.s            0x00000000   Number         0  entry12b.o ABSOLUTE
    ../clib/microlib/init/entry.s            0x00000000   Number         0  entry2.o ABSOLUTE
    ../clib/microlib/init/entry.s            0x00000000   Number         0  entry5.o ABSOLUTE
    ../clib/microlib/init/entry.s            0x00000000   Number         0  entry7a.o ABSOLUTE
    ../clib/microlib/init/entry.s            0x00000000   Number         0  entry8a.o ABSOLUTE
    ../clib/microlib/init/entry.s            0x00000000   Number         0  entry8b.o ABSOLUTE
    ../clib/microlib/init/entry.s            0x00000000   Number         0  entry9a.o ABSOLUTE
    ../clib/microlib/init/entry.s            0x00000000   Number         0  entry10a.o ABSOLUTE
    ../clib/microlib/init/entry.s            0x00000000   Number         0  entry7b.o ABSOLUTE
    ../clib/microlib/init/entry.s            0x00000000   Number         0  entry11a.o ABSOLUTE
    ../clib/microlib/init/entry.s            0x00000000   Number         0  entry11b.o ABSOLUTE
    ../clib/microlib/init/entry.s            0x00000000   Number         0  entry10b.o ABSOLUTE
    ../clib/microlib/longlong.c              0x00000000   Number         0  llsshr.o ABSOLUTE
    ../clib/microlib/longlong.c              0x00000000   Number         0  llushr.o ABSOLUTE
    ../clib/microlib/longlong.c              0x00000000   Number         0  llshl.o ABSOLUTE
    ../clib/microlib/malloc/malloc.c         0x00000000   Number         0  malloca.o ABSOLUTE
    ../clib/microlib/malloc/malloc.c         0x00000000   Number         0  mallocra.o ABSOLUTE
    ../clib/microlib/malloc/malloc.c         0x00000000   Number         0  malloc.o ABSOLUTE
    ../clib/microlib/malloc/malloc.c         0x00000000   Number         0  mallocr.o ABSOLUTE
    ../clib/microlib/malloc/mvars.c          0x00000000   Number         0  mvars.o ABSOLUTE
    ../clib/microlib/printf/printf.c         0x00000000   Number         0  printf1.o ABSOLUTE
    ../clib/microlib/printf/printf.c         0x00000000   Number         0  printf5.o ABSOLUTE
    ../clib/microlib/printf/printf.c         0x00000000   Number         0  printf0.o ABSOLUTE
    ../clib/microlib/printf/printf.c         0x00000000   Number         0  printf4.o ABSOLUTE
    ../clib/microlib/printf/printf.c         0x00000000   Number         0  printfb.o ABSOLUTE
    ../clib/microlib/printf/printf.c         0x00000000   Number         0  printf3.o ABSOLUTE
    ../clib/microlib/printf/printf.c         0x00000000   Number         0  printf2.o ABSOLUTE
    ../clib/microlib/printf/printf.c         0x00000000   Number         0  printfa.o ABSOLUTE
    ../clib/microlib/printf/printf.c         0x00000000   Number         0  printf8.o ABSOLUTE
    ../clib/microlib/printf/printf.c         0x00000000   Number         0  printf7.o ABSOLUTE
    ../clib/microlib/printf/printf.c         0x00000000   Number         0  printf6.o ABSOLUTE
    ../clib/microlib/printf/stubs.s          0x00000000   Number         0  stubs.o ABSOLUTE
    ../clib/microlib/stdio/streams.c         0x00000000   Number         0  stdout.o ABSOLUTE
    ../clib/microlib/stdlib/rand.c           0x00000000   Number         0  rand.o ABSOLUTE
    ../clib/microlib/string/memcpy.c         0x00000000   Number         0  memcpyb.o ABSOLUTE
    ../clib/microlib/string/memcpy.c         0x00000000   Number         0  memcpya.o ABSOLUTE
    ../clib/microlib/string/memset.c         0x00000000   Number         0  memseta.o ABSOLUTE
    ../clib/microlib/string/strcat.c         0x00000000   Number         0  strcat.o ABSOLUTE
    ../clib/microlib/string/strcmp.c         0x00000000   Number         0  strcmp.o ABSOLUTE
    ../clib/microlib/string/strcpy.c         0x00000000   Number         0  strcpy.o ABSOLUTE
    ../clib/microlib/string/strlen.c         0x00000000   Number         0  strlen.o ABSOLUTE
    ../clib/microlib/string/strncmp.c        0x00000000   Number         0  strncmp.o ABSOLUTE
    ../clib/microlib/string/strtok.c         0x00000000   Number         0  strtok_r.o ABSOLUTE
    ../clib/microlib/string/strtok.c         0x00000000   Number         0  strtok.o ABSOLUTE
    ../clib/microlib/stubs.s                 0x00000000   Number         0  iusefp.o ABSOLUTE
    ../clib/scanf.c                          0x00000000   Number         0  strtol.o ABSOLUTE
    ../clib/scanf.c                          0x00000000   Number         0  scanf_fp.o ABSOLUTE
    ../clib/scanf.c                          0x00000000   Number         0  _scanf_int.o ABSOLUTE
    ../clib/scanf.c                          0x00000000   Number         0  __0sscanf.o ABSOLUTE
    ../clib/scanf.c                          0x00000000   Number         0  atoi.o ABSOLUTE
    ../clib/scanf.c                          0x00000000   Number         0  _chval.o ABSOLUTE
    ../clib/scanf.c                          0x00000000   Number         0  scanf_char.o ABSOLUTE
    ../clib/scanf.c                          0x00000000   Number         0  _sgetc.o ABSOLUTE
    ../clib/scanf.c                          0x00000000   Number         0  _strtoul.o ABSOLUTE
    ../clib/scanf.c                          0x00000000   Number         0  strtod.o ABSOLUTE
    ../clib/scanf.c                          0x00000000   Number         0  _scanf.o ABSOLUTE
    ../fplib/microlib/d2f.c                  0x00000000   Number         0  d2f.o ABSOLUTE
    ../fplib/microlib/f2d.c                  0x00000000   Number         0  f2d.o ABSOLUTE
    ../fplib/microlib/fpadd.c                0x00000000   Number         0  dadd.o ABSOLUTE
    ../fplib/microlib/fpdiv.c                0x00000000   Number         0  ddiv.o ABSOLUTE
    ../fplib/microlib/fpepilogue.c           0x00000000   Number         0  fepilogue.o ABSOLUTE
    ../fplib/microlib/fpepilogue.c           0x00000000   Number         0  depilogue.o ABSOLUTE
    ../fplib/microlib/fpfix.c                0x00000000   Number         0  dfixi.o ABSOLUTE
    ../fplib/microlib/fpfix.c                0x00000000   Number         0  dfixui.o ABSOLUTE
    ../fplib/microlib/fpfix.c                0x00000000   Number         0  dfixul.o ABSOLUTE
    ../fplib/microlib/fpflt.c                0x00000000   Number         0  dfltul.o ABSOLUTE
    ../fplib/microlib/fpflt.c                0x00000000   Number         0  dflti.o ABSOLUTE
    ../fplib/microlib/fpmul.c                0x00000000   Number         0  dmul.o ABSOLUTE
    ../fplib/microlib/fpneg.c                0x00000000   Number         0  dneg.o ABSOLUTE
    ../fplib/microlib/fpscalb.c              0x00000000   Number         0  dscalb.o ABSOLUTE
    ../fplib/microlib/fpsqrt.c               0x00000000   Number         0  dsqrt.o ABSOLUTE
    ../mathlib/ceil.c                        0x00000000   Number         0  ceil.o ABSOLUTE
    ../mathlib/dunder.c                      0x00000000   Number         0  dunder.o ABSOLUTE
    ../mathlib/fabs.c                        0x00000000   Number         0  fabs.o ABSOLUTE
    ../mathlib/fpclassify.c                  0x00000000   Number         0  fpclassify.o ABSOLUTE
    ../mathlib/log.c                         0x00000000   Number         0  log_x.o ABSOLUTE
    ../mathlib/log.c                         0x00000000   Number         0  log.o ABSOLUTE
    ../mathlib/poly.c                        0x00000000   Number         0  poly.o ABSOLUTE
    ../mathlib/pow.c                         0x00000000   Number         0  pow_x.o ABSOLUTE
    ../mathlib/pow.c                         0x00000000   Number         0  pow.o ABSOLUTE
    ../mathlib/qnan.c                        0x00000000   Number         0  qnan.o ABSOLUTE
    ../mathlib/sqrt.c                        0x00000000   Number         0  sqrt_x.o ABSOLUTE
    ../mathlib/sqrt.c                        0x00000000   Number         0  sqrt.o ABSOLUTE
    ../mathlib/strtod.c                      0x00000000   Number         0  strtod.o ABSOLUTE
    ..\\api\\adc\\api_adc.c                  0x00000000   Number         0  api_adc.o ABSOLUTE
    ..\\api\\cpu\\api_cpu.c                  0x00000000   Number         0  api_cpu.o ABSOLUTE
    ..\\api\\fan\\api_fan.c                  0x00000000   Number         0  api_fan.o ABSOLUTE
    ..\\api\\sensor\\api_sensor.c            0x00000000   Number         0  api_sensor.o ABSOLUTE
    ..\\api\\shell\\shell.c                  0x00000000   Number         0  shell.o ABSOLUTE
    ..\\api\\shell\\shell_port.c             0x00000000   Number         0  shell_port.o ABSOLUTE
    ..\\api\\tmp\\api_tmp.c                  0x00000000   Number         0  api_tmp.o ABSOLUTE
    ..\\api\\tmp\\hwd1668.c                  0x00000000   Number         0  hwd1668.o ABSOLUTE
    ..\\api\\tools\\FIFO.c                   0x00000000   Number         0  fifo.o ABSOLUTE
    ..\\api\\tools\\FILO.c                   0x00000000   Number         0  filo.o ABSOLUTE
    ..\\api\\tools\\cJSON.c                  0x00000000   Number         0  cjson.o ABSOLUTE
    ..\\api\\tools\\log.c                    0x00000000   Number         0  log.o ABSOLUTE
    ..\\api\\tools\\tools.c                  0x00000000   Number         0  tools.o ABSOLUTE
    ..\\api\\utc\\api_utc.c                  0x00000000   Number         0  api_utc.o ABSOLUTE
    ..\\bsp\\bsp_adc.c                       0x00000000   Number         0  bsp_adc.o ABSOLUTE
    ..\\bsp\\bsp_capture.c                   0x00000000   Number         0  bsp_capture.o ABSOLUTE
    ..\\bsp\\bsp_gpio.c                      0x00000000   Number         0  bsp_gpio.o ABSOLUTE
    ..\\bsp\\bsp_i2c.c                       0x00000000   Number         0  bsp_i2c.o ABSOLUTE
    ..\\bsp\\bsp_i2c_gpio.c                  0x00000000   Number         0  bsp_i2c_gpio.o ABSOLUTE
    ..\\bsp\\bsp_led.c                       0x00000000   Number         0  bsp_led.o ABSOLUTE
    ..\\bsp\\bsp_net_gpio.c                  0x00000000   Number         0  bsp_net_gpio.o ABSOLUTE
    ..\\bsp\\bsp_pwm.c                       0x00000000   Number         0  bsp_pwm.o ABSOLUTE
    ..\\bsp\\bsp_timer.c                     0x00000000   Number         0  bsp_timer.o ABSOLUTE
    ..\\bsp\\bsp_uart3.c                     0x00000000   Number         0  bsp_uart3.o ABSOLUTE
    ..\\bsp\\bsp_uartcomm.c                  0x00000000   Number         0  bsp_uartcomm.o ABSOLUTE
    ..\\bsp\\bsp_usart0.c                    0x00000000   Number         0  bsp_usart0.o ABSOLUTE
    ..\\bsp\\bsp_usart1.c                    0x00000000   Number         0  bsp_usart1.o ABSOLUTE
    ..\\firmware\\GD32F30x\\CMSIS\\GD\\GD32F30x\\Source\\system_gd32f30x.c 0x00000000   Number         0  system_gd32f30x.o ABSOLUTE
    ..\\firmware\\GD32F30x\\GD32F30x_standard_peripheral\\Source\\gd32f30x_adc.c 0x00000000   Number         0  gd32f30x_adc.o ABSOLUTE
    ..\\firmware\\GD32F30x\\GD32F30x_standard_peripheral\\Source\\gd32f30x_bkp.c 0x00000000   Number         0  gd32f30x_bkp.o ABSOLUTE
    ..\\firmware\\GD32F30x\\GD32F30x_standard_peripheral\\Source\\gd32f30x_dbg.c 0x00000000   Number         0  gd32f30x_dbg.o ABSOLUTE
    ..\\firmware\\GD32F30x\\GD32F30x_standard_peripheral\\Source\\gd32f30x_dma.c 0x00000000   Number         0  gd32f30x_dma.o ABSOLUTE
    ..\\firmware\\GD32F30x\\GD32F30x_standard_peripheral\\Source\\gd32f30x_exti.c 0x00000000   Number         0  gd32f30x_exti.o ABSOLUTE
    ..\\firmware\\GD32F30x\\GD32F30x_standard_peripheral\\Source\\gd32f30x_fmc.c 0x00000000   Number         0  gd32f30x_fmc.o ABSOLUTE
    ..\\firmware\\GD32F30x\\GD32F30x_standard_peripheral\\Source\\gd32f30x_fwdgt.c 0x00000000   Number         0  gd32f30x_fwdgt.o ABSOLUTE
    ..\\firmware\\GD32F30x\\GD32F30x_standard_peripheral\\Source\\gd32f30x_gpio.c 0x00000000   Number         0  gd32f30x_gpio.o ABSOLUTE
    ..\\firmware\\GD32F30x\\GD32F30x_standard_peripheral\\Source\\gd32f30x_i2c.c 0x00000000   Number         0  gd32f30x_i2c.o ABSOLUTE
    ..\\firmware\\GD32F30x\\GD32F30x_standard_peripheral\\Source\\gd32f30x_it.c 0x00000000   Number         0  gd32f30x_it.o ABSOLUTE
    ..\\firmware\\GD32F30x\\GD32F30x_standard_peripheral\\Source\\gd32f30x_misc.c 0x00000000   Number         0  gd32f30x_misc.o ABSOLUTE
    ..\\firmware\\GD32F30x\\GD32F30x_standard_peripheral\\Source\\gd32f30x_rcu.c 0x00000000   Number         0  gd32f30x_rcu.o ABSOLUTE
    ..\\firmware\\GD32F30x\\GD32F30x_standard_peripheral\\Source\\gd32f30x_rtc.c 0x00000000   Number         0  gd32f30x_rtc.o ABSOLUTE
    ..\\firmware\\GD32F30x\\GD32F30x_standard_peripheral\\Source\\gd32f30x_spi.c 0x00000000   Number         0  gd32f30x_spi.o ABSOLUTE
    ..\\firmware\\GD32F30x\\GD32F30x_standard_peripheral\\Source\\gd32f30x_timer.c 0x00000000   Number         0  gd32f30x_timer.o ABSOLUTE
    ..\\firmware\\GD32F30x\\GD32F30x_standard_peripheral\\Source\\gd32f30x_usart.c 0x00000000   Number         0  gd32f30x_usart.o ABSOLUTE
    ..\\firmware\\GD32F30x\\GD32F30x_standard_peripheral\\Source\\gd32f30x_wwdgt.c 0x00000000   Number         0  gd32f30x_wwdgt.o ABSOLUTE
    ..\\firmware\\GD32F30x\\gd32f30x_platform.c 0x00000000   Number         0  gd32f30x_platform.o ABSOLUTE
    ..\\freertos\\croutine.c                 0x00000000   Number         0  croutine.o ABSOLUTE
    ..\\freertos\\event_groups.c             0x00000000   Number         0  event_groups.o ABSOLUTE
    ..\\freertos\\list.c                     0x00000000   Number         0  list.o ABSOLUTE
    ..\\freertos\\portable\\MemMang\\heap_4.c 0x00000000   Number         0  heap_4.o ABSOLUTE
    ..\\freertos\\portable\\RVDS\\ARM_CM3\\port.c 0x00000000   Number         0  port.o ABSOLUTE
    ..\\freertos\\queue.c                    0x00000000   Number         0  queue.o ABSOLUTE
    ..\\freertos\\tasks.c                    0x00000000   Number         0  tasks.o ABSOLUTE
    ..\\freertos\\timers.c                   0x00000000   Number         0  timers.o ABSOLUTE
    ..\\ipmb\\IpmbMsgHndlr.c                 0x00000000   Number         0  ipmbmsghndlr.o ABSOLUTE
    ..\\ipmb\\libipmilan-src\\RMCP.c         0x00000000   Number         0  rmcp.o ABSOLUTE
    ..\\ipmb\\libipmiserial-src\\Serial.c    0x00000000   Number         0  serial.o ABSOLUTE
    ..\\ipmb\\libipmiserial-src\\SerialIfc.c 0x00000000   Number         0  serialifc.o ABSOLUTE
    ..\\ipmi\\libipmi-3.1.0-src\\data\\sensor_helpers.c 0x00000000   Number         0  sensor_helpers.o ABSOLUTE
    ..\\ipmi\\libipmimsghndlr-3.0.0-src\\data\\App\\App.c 0x00000000   Number         0  app.o ABSOLUTE
    ..\\ipmi\\libipmimsghndlr-3.0.0-src\\data\\App\\AppDevice\\AppDevice.c 0x00000000   Number         0  appdevice.o ABSOLUTE
    ..\\ipmi\\libipmimsghndlr-3.0.0-src\\data\\App\\AppDevice\\ChassisCtrl.c 0x00000000   Number         0  chassisctrl.o ABSOLUTE
    ..\\ipmi\\libipmimsghndlr-3.0.0-src\\data\\App\\IPMDevice\\IPMDevice.c 0x00000000   Number         0  ipmdevice.o ABSOLUTE
    ..\\ipmi\\libipmimsghndlr-3.0.0-src\\data\\Bridge\\Bridge.c 0x00000000   Number         0  bridge.o ABSOLUTE
    ..\\ipmi\\libipmimsghndlr-3.0.0-src\\data\\Chassis\\Chassis.c 0x00000000   Number         0  chassis.o ABSOLUTE
    ..\\ipmi\\libipmimsghndlr-3.0.0-src\\data\\Chassis\\ChassisDevice.c 0x00000000   Number         0  chassisdevice.o ABSOLUTE
    ..\\ipmi\\libipmimsghndlr-3.0.0-src\\data\\MsgHndlr.c 0x00000000   Number         0  msghndlr.o ABSOLUTE
    ..\\ipmi\\libipmimsghndlr-3.0.0-src\\data\\Oem\\Oem.c 0x00000000   Number         0  oem.o ABSOLUTE
    ..\\ipmi\\libipmimsghndlr-3.0.0-src\\data\\SensorEvent\\SensorDevice\\Sensor.c 0x00000000   Number         0  sensor.o ABSOLUTE
    ..\\ipmi\\libipmimsghndlr-3.0.0-src\\data\\SensorEvent\\SensorEvent.c 0x00000000   Number         0  sensorevent.o ABSOLUTE
    ..\\ipmi\\libipmimsghndlr-3.0.0-src\\data\\Storage\\SDRDevice\\SDR.c 0x00000000   Number         0  sdr.o ABSOLUTE
    ..\\ipmi\\libipmimsghndlr-3.0.0-src\\data\\Storage\\Storage.c 0x00000000   Number         0  storage.o ABSOLUTE
    ..\\sub_devices\\api_subdevices.c        0x00000000   Number         0  api_subdevices.o ABSOLUTE
    ..\\sub_devices\\dev_main.c              0x00000000   Number         0  dev_main.o ABSOLUTE
    ..\\sub_devices\\dev_net.c               0x00000000   Number         0  dev_net.o ABSOLUTE
    ..\\sub_devices\\dev_power.c             0x00000000   Number         0  dev_power.o ABSOLUTE
    ..\\sub_devices\\dev_storage0.c          0x00000000   Number         0  dev_storage0.o ABSOLUTE
    ..\\sub_devices\\dev_switch.c            0x00000000   Number         0  dev_switch.o ABSOLUTE
    ..\\user\\main.c                         0x00000000   Number         0  main.o ABSOLUTE
    ..\\user\\systick.c                      0x00000000   Number         0  systick.o ABSOLUTE
    ..\api\adc\api_adc.c                     0x00000000   Number         0  api_adc.o ABSOLUTE
    ..\api\cpu\api_cpu.c                     0x00000000   Number         0  api_cpu.o ABSOLUTE
    ..\api\fan\api_fan.c                     0x00000000   Number         0  api_fan.o ABSOLUTE
    ..\api\pid\pid.c                         0x00000000   Number         0  pid.o ABSOLUTE
    ..\api\sensor\api_sensor.c               0x00000000   Number         0  api_sensor.o ABSOLUTE
    ..\api\shell\shell.c                     0x00000000   Number         0  shell.o ABSOLUTE
    ..\api\shell\shell_cmd_list.c            0x00000000   Number         0  shell_cmd_list.o ABSOLUTE
    ..\api\shell\shell_companion.c           0x00000000   Number         0  shell_companion.o ABSOLUTE
    ..\api\shell\shell_ext.c                 0x00000000   Number         0  shell_ext.o ABSOLUTE
    ..\api\shell\shell_port.c                0x00000000   Number         0  shell_port.o ABSOLUTE
    ..\api\tmp\api_tmp.c                     0x00000000   Number         0  api_tmp.o ABSOLUTE
    ..\api\tmp\hwd1668.c                     0x00000000   Number         0  hwd1668.o ABSOLUTE
    ..\api\tools\FIFO.c                      0x00000000   Number         0  fifo.o ABSOLUTE
    ..\api\tools\FILO.c                      0x00000000   Number         0  filo.o ABSOLUTE
    ..\api\tools\cJSON.c                     0x00000000   Number         0  cjson.o ABSOLUTE
    ..\api\tools\log.c                       0x00000000   Number         0  log.o ABSOLUTE
    ..\api\tools\tools.c                     0x00000000   Number         0  tools.o ABSOLUTE
    ..\api\utc\api_utc.c                     0x00000000   Number         0  api_utc.o ABSOLUTE
    ..\bsp\bsp_adc.c                         0x00000000   Number         0  bsp_adc.o ABSOLUTE
    ..\bsp\bsp_capture.c                     0x00000000   Number         0  bsp_capture.o ABSOLUTE
    ..\bsp\bsp_gpio.c                        0x00000000   Number         0  bsp_gpio.o ABSOLUTE
    ..\bsp\bsp_i2c.c                         0x00000000   Number         0  bsp_i2c.o ABSOLUTE
    ..\bsp\bsp_i2c_gpio.c                    0x00000000   Number         0  bsp_i2c_gpio.o ABSOLUTE
    ..\bsp\bsp_led.c                         0x00000000   Number         0  bsp_led.o ABSOLUTE
    ..\bsp\bsp_net_gpio.c                    0x00000000   Number         0  bsp_net_gpio.o ABSOLUTE
    ..\bsp\bsp_pwm.c                         0x00000000   Number         0  bsp_pwm.o ABSOLUTE
    ..\bsp\bsp_timer.c                       0x00000000   Number         0  bsp_timer.o ABSOLUTE
    ..\bsp\bsp_uart3.c                       0x00000000   Number         0  bsp_uart3.o ABSOLUTE
    ..\bsp\bsp_uartcomm.c                    0x00000000   Number         0  bsp_uartcomm.o ABSOLUTE
    ..\bsp\bsp_usart0.c                      0x00000000   Number         0  bsp_usart0.o ABSOLUTE
    ..\bsp\bsp_usart1.c                      0x00000000   Number         0  bsp_usart1.o ABSOLUTE
    ..\firmware\GD32F30x\CMSIS\GD\GD32F30x\Source\ARM\startup_gd32f30x_cl.s 0x00000000   Number         0  startup_gd32f30x_cl.o ABSOLUTE
    ..\firmware\GD32F30x\CMSIS\GD\GD32F30x\Source\system_gd32f30x.c 0x00000000   Number         0  system_gd32f30x.o ABSOLUTE
    ..\firmware\GD32F30x\GD32F30x_standard_peripheral\Source\gd32f30x_adc.c 0x00000000   Number         0  gd32f30x_adc.o ABSOLUTE
    ..\firmware\GD32F30x\GD32F30x_standard_peripheral\Source\gd32f30x_bkp.c 0x00000000   Number         0  gd32f30x_bkp.o ABSOLUTE
    ..\firmware\GD32F30x\GD32F30x_standard_peripheral\Source\gd32f30x_dbg.c 0x00000000   Number         0  gd32f30x_dbg.o ABSOLUTE
    ..\firmware\GD32F30x\GD32F30x_standard_peripheral\Source\gd32f30x_dma.c 0x00000000   Number         0  gd32f30x_dma.o ABSOLUTE
    ..\firmware\GD32F30x\GD32F30x_standard_peripheral\Source\gd32f30x_exti.c 0x00000000   Number         0  gd32f30x_exti.o ABSOLUTE
    ..\firmware\GD32F30x\GD32F30x_standard_peripheral\Source\gd32f30x_fmc.c 0x00000000   Number         0  gd32f30x_fmc.o ABSOLUTE
    ..\firmware\GD32F30x\GD32F30x_standard_peripheral\Source\gd32f30x_fwdgt.c 0x00000000   Number         0  gd32f30x_fwdgt.o ABSOLUTE
    ..\firmware\GD32F30x\GD32F30x_standard_peripheral\Source\gd32f30x_gpio.c 0x00000000   Number         0  gd32f30x_gpio.o ABSOLUTE
    ..\firmware\GD32F30x\GD32F30x_standard_peripheral\Source\gd32f30x_i2c.c 0x00000000   Number         0  gd32f30x_i2c.o ABSOLUTE
    ..\firmware\GD32F30x\GD32F30x_standard_peripheral\Source\gd32f30x_it.c 0x00000000   Number         0  gd32f30x_it.o ABSOLUTE
    ..\firmware\GD32F30x\GD32F30x_standard_peripheral\Source\gd32f30x_misc.c 0x00000000   Number         0  gd32f30x_misc.o ABSOLUTE
    ..\firmware\GD32F30x\GD32F30x_standard_peripheral\Source\gd32f30x_rcu.c 0x00000000   Number         0  gd32f30x_rcu.o ABSOLUTE
    ..\firmware\GD32F30x\GD32F30x_standard_peripheral\Source\gd32f30x_rtc.c 0x00000000   Number         0  gd32f30x_rtc.o ABSOLUTE
    ..\firmware\GD32F30x\GD32F30x_standard_peripheral\Source\gd32f30x_spi.c 0x00000000   Number         0  gd32f30x_spi.o ABSOLUTE
    ..\firmware\GD32F30x\GD32F30x_standard_peripheral\Source\gd32f30x_timer.c 0x00000000   Number         0  gd32f30x_timer.o ABSOLUTE
    ..\firmware\GD32F30x\GD32F30x_standard_peripheral\Source\gd32f30x_usart.c 0x00000000   Number         0  gd32f30x_usart.o ABSOLUTE
    ..\firmware\GD32F30x\GD32F30x_standard_peripheral\Source\gd32f30x_wwdgt.c 0x00000000   Number         0  gd32f30x_wwdgt.o ABSOLUTE
    ..\firmware\GD32F30x\gd32f30x_platform.c 0x00000000   Number         0  gd32f30x_platform.o ABSOLUTE
    ..\freertos\croutine.c                   0x00000000   Number         0  croutine.o ABSOLUTE
    ..\freertos\event_groups.c               0x00000000   Number         0  event_groups.o ABSOLUTE
    ..\freertos\list.c                       0x00000000   Number         0  list.o ABSOLUTE
    ..\freertos\portable\MemMang\heap_4.c    0x00000000   Number         0  heap_4.o ABSOLUTE
    ..\freertos\portable\RVDS\ARM_CM3\port.c 0x00000000   Number         0  port.o ABSOLUTE
    ..\freertos\queue.c                      0x00000000   Number         0  queue.o ABSOLUTE
    ..\freertos\tasks.c                      0x00000000   Number         0  tasks.o ABSOLUTE
    ..\freertos\timers.c                     0x00000000   Number         0  timers.o ABSOLUTE
    ..\ipmb\IpmbMsgHndlr.c                   0x00000000   Number         0  ipmbmsghndlr.o ABSOLUTE
    ..\ipmb\libipmilan-src\RMCP.c            0x00000000   Number         0  rmcp.o ABSOLUTE
    ..\ipmb\libipmiserial-src\Serial.c       0x00000000   Number         0  serial.o ABSOLUTE
    ..\ipmb\libipmiserial-src\SerialIfc.c    0x00000000   Number         0  serialifc.o ABSOLUTE
    ..\ipmi\ipmi_common\ipmi_common.c        0x00000000   Number         0  ipmi_common.o ABSOLUTE
    ..\ipmi\libipmi-3.1.0-src\data\sensor_helpers.c 0x00000000   Number         0  sensor_helpers.o ABSOLUTE
    ..\ipmi\libipmimsghndlr-3.0.0-src\data\App\App.c 0x00000000   Number         0  app.o ABSOLUTE
    ..\ipmi\libipmimsghndlr-3.0.0-src\data\App\AppDevice\AppDevice.c 0x00000000   Number         0  appdevice.o ABSOLUTE
    ..\ipmi\libipmimsghndlr-3.0.0-src\data\App\AppDevice\ChassisCtrl.c 0x00000000   Number         0  chassisctrl.o ABSOLUTE
    ..\ipmi\libipmimsghndlr-3.0.0-src\data\App\IPMDevice\IPMDevice.c 0x00000000   Number         0  ipmdevice.o ABSOLUTE
    ..\ipmi\libipmimsghndlr-3.0.0-src\data\Bridge\Bridge.c 0x00000000   Number         0  bridge.o ABSOLUTE
    ..\ipmi\libipmimsghndlr-3.0.0-src\data\Chassis\Chassis.c 0x00000000   Number         0  chassis.o ABSOLUTE
    ..\ipmi\libipmimsghndlr-3.0.0-src\data\Chassis\ChassisDevice.c 0x00000000   Number         0  chassisdevice.o ABSOLUTE
    ..\ipmi\libipmimsghndlr-3.0.0-src\data\MsgHndlr.c 0x00000000   Number         0  msghndlr.o ABSOLUTE
    ..\ipmi\libipmimsghndlr-3.0.0-src\data\Oem\Oem.c 0x00000000   Number         0  oem.o ABSOLUTE
    ..\ipmi\libipmimsghndlr-3.0.0-src\data\SensorEvent\SensorDevice\Sensor.c 0x00000000   Number         0  sensor.o ABSOLUTE
    ..\ipmi\libipmimsghndlr-3.0.0-src\data\SensorEvent\SensorEvent.c 0x00000000   Number         0  sensorevent.o ABSOLUTE
    ..\ipmi\libipmimsghndlr-3.0.0-src\data\Storage\SDRDevice\SDR.c 0x00000000   Number         0  sdr.o ABSOLUTE
    ..\ipmi\libipmimsghndlr-3.0.0-src\data\Storage\Storage.c 0x00000000   Number         0  storage.o ABSOLUTE
    ..\sub_devices\api_subdevices.c          0x00000000   Number         0  api_subdevices.o ABSOLUTE
    ..\sub_devices\dev_main.c                0x00000000   Number         0  dev_main.o ABSOLUTE
    ..\sub_devices\dev_net.c                 0x00000000   Number         0  dev_net.o ABSOLUTE
    ..\sub_devices\dev_power.c               0x00000000   Number         0  dev_power.o ABSOLUTE
    ..\sub_devices\dev_storage0.c            0x00000000   Number         0  dev_storage0.o ABSOLUTE
    ..\sub_devices\dev_switch.c              0x00000000   Number         0  dev_switch.o ABSOLUTE
    ..\user\main.c                           0x00000000   Number         0  main.o ABSOLUTE
    ..\user\systick.c                        0x00000000   Number         0  systick.o ABSOLUTE
    cdcmple.s                                0x00000000   Number         0  cdcmple.o ABSOLUTE
    cdrcmple.s                               0x00000000   Number         0  cdrcmple.o ABSOLUTE
    dc.s                                     0x00000000   Number         0  dc.o ABSOLUTE
    handlers.s                               0x00000000   Number         0  handlers.o ABSOLUTE
    init.s                                   0x00000000   Number         0  init.o ABSOLUTE
    RESET                                    0x08000000   Section      336  startup_gd32f30x_cl.o(RESET)
    .ARM.Collect$$$$00000000                 0x08000150   Section        0  entry.o(.ARM.Collect$$$$00000000)
    .ARM.Collect$$$$00000001                 0x08000150   Section        4  entry2.o(.ARM.Collect$$$$00000001)
    .ARM.Collect$$$$00000004                 0x08000154   Section        4  entry5.o(.ARM.Collect$$$$00000004)
    .ARM.Collect$$$$00000008                 0x08000158   Section        0  entry7b.o(.ARM.Collect$$$$00000008)
    .ARM.Collect$$$$0000000A                 0x08000158   Section        0  entry8b.o(.ARM.Collect$$$$0000000A)
    .ARM.Collect$$$$0000000B                 0x08000158   Section        8  entry9a.o(.ARM.Collect$$$$0000000B)
    .ARM.Collect$$$$0000000E                 0x08000160   Section        4  entry12b.o(.ARM.Collect$$$$0000000E)
    .ARM.Collect$$$$0000000F                 0x08000164   Section        0  entry10a.o(.ARM.Collect$$$$0000000F)
    .ARM.Collect$$$$00000011                 0x08000164   Section        0  entry11a.o(.ARM.Collect$$$$00000011)
    .ARM.Collect$$$$00002712                 0x08000164   Section        4  entry2.o(.ARM.Collect$$$$00002712)
    __lit__00000000                          0x08000164   Data           4  entry2.o(.ARM.Collect$$$$00002712)
    .emb_text                                0x08000168   Section      150  port.o(.emb_text)
    $v0                                      0x08000168   Number         0  port.o(.emb_text)
    .text                                    0x080001fe   Section        0  gd32f30x_it.o(.text)
    .text                                    0x08000224   Section        0  main.o(.text)
    debug_config                             0x08000227   Thumb Code    28  main.o(.text)
    watch_dog_init                           0x08000243   Thumb Code   418  main.o(.text)
    .text                                    0x080007a8   Section        0  systick.o(.text)
    NVIC_SetPriority                         0x080007a9   Thumb Code    32  systick.o(.text)
    .text                                    0x08000828   Section        0  gd32f30x_platform.o(.text)
    .text                                    0x0800082c   Section        0  api_subdevices.o(.text)
    SubDevice_GetModeName                    0x0800082d   Thumb Code    42  api_subdevices.o(.text)
    SubDevice_InitAllMode                    0x08000857   Thumb Code    50  api_subdevices.o(.text)
    SubDevice_modeConvertSlaveAddr           0x08000889   Thumb Code    12  api_subdevices.o(.text)
    SubDevice_InsertMode                     0x08000895   Thumb Code    40  api_subdevices.o(.text)
    SubDevice_isExistSensorUnit              0x08000a27   Thumb Code    94  api_subdevices.o(.text)
    SubDevice_readAllSensorUnit              0x08000a85   Thumb Code    50  api_subdevices.o(.text)
    SubDevice_SendDataSpilt                  0x08000ab7   Thumb Code    92  api_subdevices.o(.text)
    SubDevice_Upload                         0x08000b13   Thumb Code   916  api_subdevices.o(.text)
    SubDevice_readingSensorForeach           0x08000ea7   Thumb Code   162  api_subdevices.o(.text)
    SubDevice_SampleAll                      0x08000f87   Thumb Code   260  api_subdevices.o(.text)
    SubDevice_HeartBeatTimerCallBack         0x0800108b   Thumb Code    46  api_subdevices.o(.text)
    SubDevice_SetOnLine                      0x08001375   Thumb Code    42  api_subdevices.o(.text)
    SubDevice_QueryModeByAddr                0x0800139f   Thumb Code    34  api_subdevices.o(.text)
    .text                                    0x080014f8   Section        0  dev_main.o(.text)
    DevTaskHandler                           0x080014f9   Thumb Code    84  dev_main.o(.text)
    .text                                    0x080015b8   Section        0  api_adc.o(.text)
    adc_InitADCs                             0x080015b9   Thumb Code    88  api_adc.o(.text)
    adc_sampleVal2Temp2                      0x0800179f   Thumb Code    90  api_adc.o(.text)
    adc_test                                 0x080017f9   Thumb Code    12  api_adc.o(.text)
    .text                                    0x08001938   Section        0  api_fan.o(.text)
    fan_getHandler                           0x08001939   Thumb Code    32  api_fan.o(.text)
    fan_ctrl_task                            0x080019df   Thumb Code   160  api_fan.o(.text)
    vTimerFanWatchdogCallback                0x08001a7f   Thumb Code    82  api_fan.o(.text)
    .text                                    0x08001c68   Section        0  api_cpu.o(.text)
    .text                                    0x08001cac   Section        0  api_utc.o(.text)
    julianDayFromDate                        0x08001cad   Thumb Code   182  api_utc.o(.text)
    get_month                                0x08001db3   Thumb Code   122  api_utc.o(.text)
    GetSystemTime                            0x08001e2d   Thumb Code   296  api_utc.o(.text)
    floordiv                                 0x08001fd9   Thumb Code    20  api_utc.o(.text)
    .text                                    0x08002064   Section        0  tools.o(.text)
    do_scan                                  0x08002065   Thumb Code   602  tools.o(.text)
    display_usage                            0x080022bf   Thumb Code    64  tools.o(.text)
    parse_arguments                          0x080022ff   Thumb Code   170  tools.o(.text)
    busArgHandler                            0x080023d7   Thumb Code   114  tools.o(.text)
    do_get_host                              0x08002449   Thumb Code   794  tools.o(.text)
    getHostArgHandler                        0x08002763   Thumb Code    32  tools.o(.text)
    do_set_host                              0x08002783   Thumb Code   100  tools.o(.text)
    setHostArgHandler                        0x080027e7   Thumb Code   230  tools.o(.text)
    do_reset                                 0x080028cd   Thumb Code   208  tools.o(.text)
    resetArgHandler                          0x0800299d   Thumb Code    32  tools.o(.text)
    scanArgHandler                           0x080029bd   Thumb Code    14  tools.o(.text)
    parameterChecked                         0x08002c4d   Thumb Code    46  tools.o(.text)
    NVIC_SystemReset                         0x08002ca3   Thumb Code    30  tools.o(.text)
    .text                                    0x08002d3c   Section        0  fifo.o(.text)
    .text                                    0x08002ecc   Section        0  api_sensor.o(.text)
    .text                                    0x080030cc   Section        0  cjson.o(.text)
    case_insensitive_strcmp                  0x08003147   Thumb Code    72  cjson.o(.text)
    cJSON_strdup                             0x0800318f   Thumb Code    56  cjson.o(.text)
    cJSON_New_Item                           0x08003219   Thumb Code    26  cjson.o(.text)
    get_decimal_point                        0x08003287   Thumb Code     4  cjson.o(.text)
    parse_number                             0x0800328b   Thumb Code   316  cjson.o(.text)
    ensure                                   0x08003493   Thumb Code   256  cjson.o(.text)
    update_offset                            0x08003593   Thumb Code    36  cjson.o(.text)
    compare_double                           0x080035b7   Thumb Code   192  cjson.o(.text)
    print_number                             0x08003677   Thumb Code   318  cjson.o(.text)
    parse_hex4                               0x080037b5   Thumb Code    90  cjson.o(.text)
    utf16_literal_to_utf8                    0x0800380f   Thumb Code   300  cjson.o(.text)
    parse_string                             0x0800393b   Thumb Code   440  cjson.o(.text)
    print_string_ptr                         0x08003af3   Thumb Code   360  cjson.o(.text)
    print_string                             0x08003c5b   Thumb Code    16  cjson.o(.text)
    buffer_skip_whitespace                   0x08003c6b   Thumb Code    72  cjson.o(.text)
    skip_utf8_bom                            0x08003cb3   Thumb Code    56  cjson.o(.text)
    parse_object                             0x08003ceb   Thumb Code   318  cjson.o(.text)
    parse_array                              0x08003e29   Thumb Code   264  cjson.o(.text)
    parse_value                              0x08003f31   Thumb Code   292  cjson.o(.text)
    print_object                             0x0800416d   Thumb Code   372  cjson.o(.text)
    print_array                              0x080042e1   Thumb Code   204  cjson.o(.text)
    print_value                              0x080043ad   Thumb Code   242  cjson.o(.text)
    cJSON_printFormat                        0x0800449f   Thumb Code   178  cjson.o(.text)
    get_array_item                           0x08004627   Thumb Code    30  cjson.o(.text)
    get_object_item                          0x0800465d   Thumb Code    82  cjson.o(.text)
    suffix_object                            0x080046eb   Thumb Code     6  cjson.o(.text)
    create_reference                         0x080046f1   Thumb Code    60  cjson.o(.text)
    add_item_to_array                        0x0800472d   Thumb Code    54  cjson.o(.text)
    cast_away_const                          0x08004773   Thumb Code     2  cjson.o(.text)
    add_item_to_object                       0x08004775   Thumb Code   122  cjson.o(.text)
    replace_item_in_object                   0x08004d29   Thumb Code    90  cjson.o(.text)
    skip_oneline_comment                     0x080050a1   Thumb Code    42  cjson.o(.text)
    skip_multiline_comment                   0x080050cb   Thumb Code    50  cjson.o(.text)
    minify_string                            0x080050fd   Thumb Code   120  cjson.o(.text)
    .text                                    0x08005448   Section        0  log.o(.text)
    display_usage                            0x08005449   Thumb Code    72  log.o(.text)
    parse_arguments                          0x08005491   Thumb Code   170  log.o(.text)
    logs                                     0x0800553b   Thumb Code    20  log.o(.text)
    setLogLevelHandler                       0x0800554f   Thumb Code    60  log.o(.text)
    getLogLevelHandler                       0x0800558b   Thumb Code    22  log.o(.text)
    .text                                    0x08005790   Section        0  ipmi_common.o(.text)
    .text                                    0x08005804   Section        0  serialifc.o(.text)
    ValidateSerialCheckSum                   0x080058eb   Thumb Code   204  serialifc.o(.text)
    ProcessSerPortReq                        0x080059b7   Thumb Code   248  serialifc.o(.text)
    DecodeSerialPkt                          0x08005aaf   Thumb Code   146  serialifc.o(.text)
    InitSerialPort                           0x08005b69   Thumb Code     6  serialifc.o(.text)
    RecvSerialPkt                            0x08005b6f   Thumb Code     6  serialifc.o(.text)
    ProcessBridgeReq                         0x08005b75   Thumb Code    34  serialifc.o(.text)
    OnBasicModeByteReceived                  0x08005b97   Thumb Code     2  serialifc.o(.text)
    .text                                    0x08005c78   Section        0  serial.o(.text)
    AuthenticateSerialCmd                    0x08005ced   Thumb Code     8  serial.o(.text)
    ActivateBasicMode                        0x08005cf5   Thumb Code     2  serial.o(.text)
    .text                                    0x08005cf8   Section        0  chassisctrl.o(.text)
    ChassisCtrlTimerCallBack                 0x08005cf9   Thumb Code   386  chassisctrl.o(.text)
    ChassisCtrlTimerCreate                   0x08005e7b   Thumb Code    50  chassisctrl.o(.text)
    .text                                    0x0800607c   Section        0  msghndlr.o(.text)
    ipmb_get_dualaddr                        0x0800609f   Thumb Code    12  msghndlr.o(.text)
    ipmb_write                               0x080060ab   Thumb Code    20  msghndlr.o(.text)
    vTaskResponseDatWrite                    0x080060bf   Thumb Code   360  msghndlr.o(.text)
    .text                                    0x08006970   Section        0  appdevice.o(.text)
    CheckForReservedUsers                    0x08006971   Thumb Code     6  appdevice.o(.text)
    UpdateCurrentEnabledUserCount            0x08006977   Thumb Code     2  appdevice.o(.text)
    IsPrivilegeAvailable                     0x08006979   Thumb Code     6  appdevice.o(.text)
    GetAuthCodeForTypeV15                    0x08006e05   Thumb Code     8  appdevice.o(.text)
    GetAuthCodeForTypeV20                    0x08006e0d   Thumb Code     8  appdevice.o(.text)
    .text                                    0x08006ee4   Section        0  oem.o(.text)
    GetFan                                   0x08006ee5   Thumb Code    82  oem.o(.text)
    .text                                    0x08007088   Section        0  sensor.o(.text)
    FindNumSensors                           0x0800708b   Thumb Code   298  sensor.o(.text)
    CheckForEntityPresence                   0x080086f7   Thumb Code   274  sensor.o(.text)
    IsSensorPresence                         0x08008809   Thumb Code   194  sensor.o(.text)
    IsEntityAssociationPresence              0x080088cb   Thumb Code    28  sensor.o(.text)
    IsFRUPresence                            0x080088e7   Thumb Code     8  sensor.o(.text)
    .text                                    0x0800986c   Section        0  sdr.o(.text)
    SDR_GetNextSDRIdNew                      0x080098f3   Thumb Code    52  sdr.o(.text)
    UpdateRepositoryInfo                     0x08009a61   Thumb Code   136  sdr.o(.text)
    ValidateSDRSize                          0x08009b31   Thumb Code    56  sdr.o(.text)
    SDR_AddSDRRec                            0x08009b69   Thumb Code   334  sdr.o(.text)
    PreCheckSDRUpdateModeCmd                 0x08009cb7   Thumb Code    60  sdr.o(.text)
    SDR_PartialAddSDR                        0x08009d59   Thumb Code   614  sdr.o(.text)
    SDR_DeleteSDR                            0x0800a0cb   Thumb Code   284  sdr.o(.text)
    SDR_ClearSDRRepository                   0x0800a235   Thumb Code   280  sdr.o(.text)
    SDRInitAgent                             0x0800a459   Thumb Code  1200  sdr.o(.text)
    GetLastSDRRec                            0x0800aa1b   Thumb Code    36  sdr.o(.text)
    SDR_ReserveSDRRepository                 0x0800ac59   Thumb Code    54  sdr.o(.text)
    SDR_GetSDRRec                            0x0800ac8f   Thumb Code    18  sdr.o(.text)
    .text                                    0x0800ace8   Section        0  ipmdevice.o(.text)
    GetFirmwareVersion                       0x0800ace9   Thumb Code    54  ipmdevice.o(.text)
    .text                                    0x0800af50   Section        0  chassisdevice.o(.text)
    .text                                    0x0800b4f0   Section        0  sensor_helpers.o(.text)
    lessthan                                 0x0800b4f1   Thumb Code   124  sensor_helpers.o(.text)
    greaterthan                              0x0800b56d   Thumb Code   124  sensor_helpers.o(.text)
    power                                    0x0800b5e9   Thumb Code    74  sensor_helpers.o(.text)
    ipmi_sensor_reading_conversion           0x0800b633   Thumb Code   378  sensor_helpers.o(.text)
    .text                                    0x0800c184   Section        0  bsp_adc.o(.text)
    adc_config                               0x0800c185   Thumb Code    86  bsp_adc.o(.text)
    rcu_config                               0x0800c1db   Thumb Code    32  bsp_adc.o(.text)
    .text                                    0x0800c258   Section        0  bsp_capture.o(.text)
    capture_gpio_config                      0x0800c259   Thumb Code    44  bsp_capture.o(.text)
    capture_timer_config                     0x0800c285   Thumb Code   124  bsp_capture.o(.text)
    capture_nvic_configuration               0x0800c301   Thumb Code    68  bsp_capture.o(.text)
    capture_getHandlerByName                 0x0800c345   Thumb Code    38  bsp_capture.o(.text)
    .text                                    0x0800c4d8   Section        0  bsp_i2c.o(.text)
    i2c_set_as_slave_device_addr             0x0800c4d9   Thumb Code    36  bsp_i2c.o(.text)
    i2c1_config                              0x0800c539   Thumb Code    60  bsp_i2c.o(.text)
    i2c1_nvic_config                         0x0800c575   Thumb Code    24  bsp_i2c.o(.text)
    i2c1_gpio_config                         0x0800c58d   Thumb Code    32  bsp_i2c.o(.text)
    i2c1_rcu_config                          0x0800c5ad   Thumb Code    28  bsp_i2c.o(.text)
    i2c1_int                                 0x0800c5c9   Thumb Code    20  bsp_i2c.o(.text)
    i2c0_config                              0x0800c5dd   Thumb Code    72  bsp_i2c.o(.text)
    i2c0_nvic_config                         0x0800c625   Thumb Code    24  bsp_i2c.o(.text)
    i2c0_gpio_config                         0x0800c63d   Thumb Code    28  bsp_i2c.o(.text)
    i2c0_rcu_config                          0x0800c659   Thumb Code    28  bsp_i2c.o(.text)
    i2c0_int                                 0x0800c675   Thumb Code    20  bsp_i2c.o(.text)
    i2c_bytes_write                          0x0800c6cd   Thumb Code   310  bsp_i2c.o(.text)
    i2c_bytes_read                           0x0800c803   Thumb Code   586  bsp_i2c.o(.text)
    .text                                    0x0800cf28   Section        0  bsp_pwm.o(.text)
    .text                                    0x0800cff8   Section        0  bsp_uart3.o(.text)
    .text                                    0x0800d048   Section        0  bsp_usart0.o(.text)
    .text                                    0x0800d204   Section        0  bsp_usart1.o(.text)
    .text                                    0x0800d28c   Section        0  bsp_gpio.o(.text)
    GPIO_findGpio                            0x0800d28d   Thumb Code    60  bsp_gpio.o(.text)
    GPIO_InitGPIOs                           0x0800d323   Thumb Code    58  bsp_gpio.o(.text)
    GPIO_CheckMode                           0x0800d35d   Thumb Code   214  bsp_gpio.o(.text)
    .text                                    0x0800d538   Section        0  bsp_timer.o(.text)
    nvic_config                              0x0800d539   Thumb Code    16  bsp_timer.o(.text)
    timer_config                             0x0800d549   Thumb Code   158  bsp_timer.o(.text)
    .text                                    0x0800d628   Section        0  bsp_uartcomm.o(.text)
    .text                                    0x0800d8c0   Section        0  system_gd32f30x.o(.text)
    system_clock_120m_hxtal                  0x0800d8c1   Thumb Code   258  system_gd32f30x.o(.text)
    system_clock_config                      0x0800d9c3   Thumb Code     8  system_gd32f30x.o(.text)
    .text                                    0x0800dbb8   Section        0  gd32f30x_adc.o(.text)
    .text                                    0x0800e164   Section        0  gd32f30x_gpio.o(.text)
    .text                                    0x0800e4c4   Section        0  gd32f30x_fwdgt.o(.text)
    .text                                    0x0800e5cc   Section        0  gd32f30x_i2c.o(.text)
    .text                                    0x0800e998   Section        0  gd32f30x_rcu.o(.text)
    .text                                    0x0800f06c   Section        0  gd32f30x_timer.o(.text)
    .text                                    0x0800feb8   Section        0  gd32f30x_misc.o(.text)
    .text                                    0x0800fffc   Section        0  gd32f30x_usart.o(.text)
    .text                                    0x08010498   Section        0  gd32f30x_dbg.o(.text)
    .text                                    0x08010518   Section       36  startup_gd32f30x_cl.o(.text)
    $v0                                      0x08010518   Number         0  startup_gd32f30x_cl.o(.text)
    .text                                    0x0801053c   Section        0  list.o(.text)
    .text                                    0x080105d0   Section        0  queue.o(.text)
    prvInitialiseNewQueue                    0x08010659   Thumb Code    46  queue.o(.text)
    prvCopyDataToQueue                       0x080106d7   Thumb Code   126  queue.o(.text)
    prvNotifyQueueSetContainer               0x08010755   Thumb Code   124  queue.o(.text)
    prvUnlockQueue                           0x080107d1   Thumb Code   146  queue.o(.text)
    prvIsQueueFull                           0x08010863   Thumb Code    30  queue.o(.text)
    prvInitialiseMutex                       0x08010a57   Thumb Code    30  queue.o(.text)
    prvGetDisinheritPriorityAfterTimeout     0x08010ad9   Thumb Code    20  queue.o(.text)
    prvIsQueueEmpty                          0x08010aed   Thumb Code    26  queue.o(.text)
    prvCopyDataFromQueue                     0x08010f17   Thumb Code    42  queue.o(.text)
    .text                                    0x080115a0   Section        0  tasks.o(.text)
    prvInitialiseTaskLists                   0x080115ef   Thumb Code    70  tasks.o(.text)
    prvAddNewTaskToReadyList                 0x08011635   Thumb Code   156  tasks.o(.text)
    prvInitialiseNewTask                     0x080116d1   Thumb Code   184  tasks.o(.text)
    prvResetNextTaskUnblockTime              0x080117eb   Thumb Code    42  tasks.o(.text)
    prvDeleteTCB                             0x08011815   Thumb Code    18  tasks.o(.text)
    prvAddCurrentTaskToDelayedList           0x08011b97   Thumb Code   124  tasks.o(.text)
    prvTaskIsTaskSuspended                   0x0801208d   Thumb Code    76  tasks.o(.text)
    prvCheckTasksWaitingTermination          0x080121eb   Thumb Code    60  tasks.o(.text)
    prvIdleTask                              0x08012227   Thumb Code    44  tasks.o(.text)
    prvTaskCheckFreeStackSpace               0x0801236d   Thumb Code    22  tasks.o(.text)
    prvListTasksWithinSingleList             0x08012401   Thumb Code   106  tasks.o(.text)
    prvWriteNameToBuffer                     0x08012a23   Thumb Code    42  tasks.o(.text)
    .text                                    0x080130a8   Section        0  timers.o(.text)
    prvInsertTimerInActiveList               0x080130a9   Thumb Code    80  timers.o(.text)
    prvSwitchTimerLists                      0x0801316f   Thumb Code   140  timers.o(.text)
    prvSampleTimeNow                         0x080131fb   Thumb Code    40  timers.o(.text)
    prvProcessReceivedCommands               0x08013223   Thumb Code   252  timers.o(.text)
    prvProcessExpiredTimer                   0x0801331f   Thumb Code    84  timers.o(.text)
    prvProcessTimerOrBlockTask               0x08013373   Thumb Code   102  timers.o(.text)
    prvGetNextExpireTime                     0x080133d9   Thumb Code    36  timers.o(.text)
    prvTimerTask                             0x080133fd   Thumb Code    26  timers.o(.text)
    prvCheckForValidListAndQueue             0x08013417   Thumb Code    72  timers.o(.text)
    prvInitialiseNewTimer                    0x08013497   Thumb Code   166  timers.o(.text)
    .text                                    0x080136f4   Section        0  heap_4.o(.text)
    prvInsertBlockIntoFreeList               0x080136f5   Thumb Code    96  heap_4.o(.text)
    prvHeapInit                              0x08013755   Thumb Code    98  heap_4.o(.text)
    .text                                    0x08013994   Section        0  port.o(.text)
    prvTaskExitError                         0x08013995   Thumb Code    48  port.o(.text)
    .text                                    0x08013c74   Section        0  shell.o(.text)
    shellWriteCommandLine                    0x08013c9d   Thumb Code    84  shell.o(.text)
    shellGetCommandName                      0x08013d29   Thumb Code    76  shell.o(.text)
    shellSetUser                             0x08013e25   Thumb Code   100  shell.o(.text)
    shellAdd                                 0x08013e89   Thumb Code    34  shell.o(.text)
    shellWriteByte                           0x08013f6b   Thumb Code    14  shell.o(.text)
    shellWriteCommandDesc                    0x08013f79   Thumb Code    80  shell.o(.text)
    shellStringCopy                          0x08014051   Thumb Code    24  shell.o(.text)
    shellStringCompare                       0x08014069   Thumb Code    88  shell.o(.text)
    shellGetCommandDesc                      0x080140c1   Thumb Code    48  shell.o(.text)
    shellParserParam                         0x08014551   Thumb Code   142  shell.o(.text)
    shellRemoveParamQuotes                   0x080145df   Thumb Code   104  shell.o(.text)
    shellShowVar                             0x0801469b   Thumb Code   160  shell.o(.text)
    shellWriteReturnValue                    0x08014831   Thumb Code   106  shell.o(.text)
    shellCheckPassword                       0x08014949   Thumb Code    62  shell.o(.text)
    shellHistoryAdd                          0x08014987   Thumb Code   122  shell.o(.text)
    shellHistory                             0x08014a01   Thumb Code   240  shell.o(.text)
    .text                                    0x08014fe8   Section        0  shell_ext.o(.text)
    shellExtNumType                          0x08014fe9   Thumb Code    88  shell_ext.o(.text)
    shellExtToNum                            0x08015041   Thumb Code    54  shell_ext.o(.text)
    shellExtParseChar                        0x08015077   Thumb Code    70  shell_ext.o(.text)
    shellExtParseString                      0x080150bd   Thumb Code    74  shell_ext.o(.text)
    shellExtParseNumber                      0x08015107   Thumb Code   232  shell_ext.o(.text)
    shellExtParseVar                         0x080151ef   Thumb Code    36  shell_ext.o(.text)
    .text                                    0x08015338   Section        0  shell_port.o(.text)
    .text                                    0x08015388   Section        0  tolower.o(.text)
    .text                                    0x08015394   Section        0  rand.o(.text)
    .text                                    0x080153b8   Section        0  memcpya.o(.text)
    .text                                    0x080153dc   Section        0  memseta.o(.text)
    .text                                    0x08015400   Section        0  strcat.o(.text)
    .text                                    0x08015418   Section        0  strlen.o(.text)
    .text                                    0x08015426   Section        0  strcmp.o(.text)
    .text                                    0x08015442   Section        0  strcpy.o(.text)
    .text                                    0x08015454   Section        0  strncmp.o(.text)
    .text                                    0x08015474   Section        0  strtok.o(.text)
    .text                                    0x080154b8   Section        0  __0sscanf.o(.text)
    .text                                    0x080154f0   Section        0  _scanf_int.o(.text)
    .text                                    0x0801563c   Section        0  scanf_fp.o(.text)
    _fp_value                                0x0801563d   Thumb Code   296  scanf_fp.o(.text)
    .text                                    0x0801599c   Section        0  strtol.o(.text)
    .text                                    0x08015a0c   Section        0  atoi.o(.text)
    .text                                    0x08015a26   Section        0  dadd.o(.text)
    .text                                    0x08015b74   Section        0  dmul.o(.text)
    .text                                    0x08015c58   Section        0  ddiv.o(.text)
    .text                                    0x08015d36   Section        0  dflti.o(.text)
    .text                                    0x08015d58   Section        0  dfixi.o(.text)
    .text                                    0x08015d96   Section        0  dfixui.o(.text)
    .text                                    0x08015dc8   Section        0  f2d.o(.text)
    .text                                    0x08015df0   Section       48  cdcmple.o(.text)
    .text                                    0x08015e20   Section       48  cdrcmple.o(.text)
    .text                                    0x08015e50   Section        0  d2f.o(.text)
    .text                                    0x08015e88   Section        0  uidiv.o(.text)
    .text                                    0x08015eb4   Section        0  uldiv.o(.text)
    .text                                    0x08015f16   Section        0  llshl.o(.text)
    .text                                    0x08015f34   Section        0  llushr.o(.text)
    .text                                    0x08015f54   Section        0  llsshr.o(.text)
    .text                                    0x08015f78   Section        0  ctype_o.o(.text)
    .text                                    0x08015f80   Section        0  isspace_o.o(.text)
    .text                                    0x08015f92   Section        0  _chval.o(.text)
    .text                                    0x08015fb0   Section        0  scanf_char.o(.text)
    _scanf_char_input                        0x08015fb1   Thumb Code    12  scanf_char.o(.text)
    .text                                    0x08015fd8   Section        0  _sgetc.o(.text)
    .text                                    0x08016018   Section        0  _strtoul.o(.text)
    .text                                    0x080160b8   Section        0  strtod.o(.text)
    _local_sscanf                            0x080160b9   Thumb Code    54  strtod.o(.text)
    .text                                    0x08016154   Section        0  iusefp.o(.text)
    .text                                    0x08016154   Section        0  fepilogue.o(.text)
    .text                                    0x080161c2   Section        0  depilogue.o(.text)
    .text                                    0x0801627c   Section        0  dscalb.o(.text)
    .text                                    0x080162aa   Section        0  dfltul.o(.text)
    .text                                    0x080162c2   Section        0  dfixul.o(.text)
    .text                                    0x080162f4   Section       36  init.o(.text)
    .text                                    0x08016318   Section        0  _scanf.o(.text)
    .text                                    0x08016648   Section        0  dsqrt.o(.text)
    .text                                    0x080166ea   Section        0  __dczerorl2.o(.text)
    i.FIFO_Empty                             0x08016740   Section        0  fifo.o(i.FIFO_Empty)
    i.__0printf                              0x08016750   Section        0  printfa.o(i.__0printf)
    i.__0sprintf                             0x08016770   Section        0  printfa.o(i.__0sprintf)
    i.__0vsnprintf                           0x08016798   Section        0  printfa.o(i.__0vsnprintf)
    i.__ARM_fpclassify                       0x080167cc   Section        0  fpclassify.o(i.__ARM_fpclassify)
    i.__aeabi_errno_addr                     0x080167fc   Section        0  errno.o(i.__aeabi_errno_addr)
    i.__free$realloc                         0x08016804   Section        0  mallocr.o(i.__free$realloc)
    i.__hardfp_ceil                          0x08016860   Section        0  ceil.o(i.__hardfp_ceil)
    i.__hardfp_fabs                          0x08016978   Section        0  fabs.o(i.__hardfp_fabs)
    i.__hardfp_log                           0x08016990   Section        0  log.o(i.__hardfp_log)
    i.__hardfp_pow                           0x08016d58   Section        0  pow.o(i.__hardfp_pow)
    i.__hardfp_strtod                        0x080179a8   Section        0  strtod.o(i.__hardfp_strtod)
    i.__kernel_poly                          0x080179d0   Section        0  poly.o(i.__kernel_poly)
    i.__malloc$realloc                       0x08017ac8   Section        0  mallocr.o(i.__malloc$realloc)
    i.__mathlib_dbl_divzero                  0x08017b18   Section        0  dunder.o(i.__mathlib_dbl_divzero)
    i.__mathlib_dbl_infnan                   0x08017b48   Section        0  dunder.o(i.__mathlib_dbl_infnan)
    i.__mathlib_dbl_infnan2                  0x08017b5c   Section        0  dunder.o(i.__mathlib_dbl_infnan2)
    i.__mathlib_dbl_invalid                  0x08017b70   Section        0  dunder.o(i.__mathlib_dbl_invalid)
    i.__mathlib_dbl_overflow                 0x08017b90   Section        0  dunder.o(i.__mathlib_dbl_overflow)
    i.__mathlib_dbl_underflow                0x08017bb0   Section        0  dunder.o(i.__mathlib_dbl_underflow)
    i.__scatterload_copy                     0x08017bd0   Section       14  handlers.o(i.__scatterload_copy)
    i.__scatterload_null                     0x08017bde   Section        2  handlers.o(i.__scatterload_null)
    i.__scatterload_zeroinit                 0x08017be0   Section       14  handlers.o(i.__scatterload_zeroinit)
    i.__set_errno                            0x08017bf0   Section        0  errno.o(i.__set_errno)
    i._fp_digits                             0x08017bfc   Section        0  printfa.o(i._fp_digits)
    _fp_digits                               0x08017bfd   Thumb Code   366  printfa.o(i._fp_digits)
    i._is_digit                              0x08017d80   Section        0  scanf_fp.o(i._is_digit)
    i._printf_core                           0x08017d90   Section        0  printfa.o(i._printf_core)
    _printf_core                             0x08017d91   Thumb Code  1704  printfa.o(i._printf_core)
    i._printf_post_padding                   0x08018444   Section        0  printfa.o(i._printf_post_padding)
    _printf_post_padding                     0x08018445   Thumb Code    36  printfa.o(i._printf_post_padding)
    i._printf_pre_padding                    0x08018468   Section        0  printfa.o(i._printf_pre_padding)
    _printf_pre_padding                      0x08018469   Thumb Code    46  printfa.o(i._printf_pre_padding)
    i._snputc                                0x08018496   Section        0  printfa.o(i._snputc)
    _snputc                                  0x08018497   Thumb Code    22  printfa.o(i._snputc)
    i._sputc                                 0x080184ac   Section        0  printfa.o(i._sputc)
    _sputc                                   0x080184ad   Thumb Code    10  printfa.o(i._sputc)
    i.fabs                                   0x080184b6   Section        0  fabs.o(i.fabs)
    i.internal_alloc                         0x080184d0   Section        0  mallocr.o(i.internal_alloc)
    internal_alloc                           0x080184d1   Thumb Code    76  mallocr.o(i.internal_alloc)
    i.realloc                                0x08018520   Section        0  mallocr.o(i.realloc)
    i.sqrt                                   0x0801858c   Section        0  sqrt.o(i.sqrt)
    .constdata                               0x080185fc   Section       56  api_subdevices.o(.constdata)
    g_SubDeviceConfigName                    0x080185fc   Data          56  api_subdevices.o(.constdata)
    .constdata                               0x08018634   Section      260  dev_main.o(.constdata)
    g_gpioConfig_main                        0x08018634   Data         120  dev_main.o(.constdata)
    g_adcChannlConfig_main                   0x080186b4   Data          72  dev_main.o(.constdata)
    g_sensor_main                            0x080186fc   Data          32  dev_main.o(.constdata)
    .constdata                               0x08018738   Section       88  dev_net.o(.constdata)
    g_gpioConfig_net                         0x08018738   Data          20  dev_net.o(.constdata)
    g_adcChannlConfig_net                    0x08018754   Data          24  dev_net.o(.constdata)
    g_sensor_net                             0x0801876c   Data           8  dev_net.o(.constdata)
    .constdata                               0x08018790   Section       88  dev_power.o(.constdata)
    g_gpioConfig_power                       0x08018790   Data          20  dev_power.o(.constdata)
    g_adcChannlConfig_power                  0x080187ac   Data          24  dev_power.o(.constdata)
    g_sensor_power                           0x080187c4   Data           8  dev_power.o(.constdata)
    .constdata                               0x080187e8   Section       88  dev_storage0.o(.constdata)
    g_gpioConfig_storage0                    0x080187e8   Data          20  dev_storage0.o(.constdata)
    g_adcChannlConfig_storage0               0x08018804   Data          24  dev_storage0.o(.constdata)
    g_sensor_storage0                        0x0801881c   Data           8  dev_storage0.o(.constdata)
    .constdata                               0x08018840   Section       88  dev_switch.o(.constdata)
    g_gpioConfig_switch                      0x08018840   Data          20  dev_switch.o(.constdata)
    g_adcChannlConfig_switch                 0x0801885c   Data          24  dev_switch.o(.constdata)
    g_sensor_switch                          0x08018874   Data           8  dev_switch.o(.constdata)
    .constdata                               0x08018898   Section       56  api_fan.o(.constdata)
    g_pwmChannleConfig                       0x08018898   Data          56  api_fan.o(.constdata)
    .constdata                               0x080188d0   Section       48  api_utc.o(.constdata)
    .constdata                               0x08018900   Section      108  tools.o(.constdata)
    .constdata                               0x0801896c   Section       14  log.o(.constdata)
    .constdata                               0x0801897c   Section      130  msghndlr.o(.constdata)
    m_MsgHndlrTbl                            0x0801897c   Data         120  msghndlr.o(.constdata)
    .constdata                               0x08018a00   Section      560  app.o(.constdata)
    .constdata                               0x08018c30   Section       48  chassis.o(.constdata)
    .constdata                               0x08018c60   Section       96  oem.o(.constdata)
    .constdata                               0x08018cc0   Section      272  sensorevent.o(.constdata)
    .constdata                               0x08018dd0   Section      102  sensor.o(.constdata)
    sensor_presence                          0x08018dd0   Data          12  sensor.o(.constdata)
    __func__                                 0x08018ddc   Data          23  sensor.o(.constdata)
    __func__                                 0x08018df3   Data          17  sensor.o(.constdata)
    __func__                                 0x08018e04   Data          28  sensor.o(.constdata)
    __func__                                 0x08018e20   Data          22  sensor.o(.constdata)
    .constdata                               0x08018e38   Section      224  storage.o(.constdata)
    .constdata                               0x08018f18   Section       20  sdr.o(.constdata)
    .constdata                               0x08018f2c   Section        3  ipmdevice.o(.constdata)
    MfgID                                    0x08018f2c   Data           3  ipmdevice.o(.constdata)
    .constdata                               0x08018f30   Section       16  bridge.o(.constdata)
    .constdata                               0x08018f40   Section       48  bsp_capture.o(.constdata)
    g_captureConfig                          0x08018f40   Data          48  bsp_capture.o(.constdata)
    .constdata                               0x08018f70   Section       40  bsp_uart3.o(.constdata)
    g_uart3Config                            0x08018f70   Data          40  bsp_uart3.o(.constdata)
    .constdata                               0x08018f98   Section       40  bsp_usart0.o(.constdata)
    g_uart0Config                            0x08018f98   Data          40  bsp_usart0.o(.constdata)
    .constdata                               0x08018fc0   Section       40  bsp_usart1.o(.constdata)
    g_uart1Config                            0x08018fc0   Data          40  bsp_usart1.o(.constdata)
    .constdata                               0x08018fe8   Section       80  bsp_gpio.o(.constdata)
    g_gpioConfigComm                         0x08018fe8   Data          80  bsp_gpio.o(.constdata)
    .constdata                               0x08019038   Section      230  shell.o(.constdata)
    .constdata                               0x08019120   Section       56  log.o(.constdata)
    Lg2                                      0x08019120   Data          24  log.o(.constdata)
    Lg                                       0x08019138   Data          32  log.o(.constdata)
    .constdata                               0x08019158   Section      136  pow.o(.constdata)
    bp                                       0x08019158   Data          16  pow.o(.constdata)
    dp_h                                     0x08019168   Data          16  pow.o(.constdata)
    dp_l                                     0x08019178   Data          16  pow.o(.constdata)
    L                                        0x08019188   Data          48  pow.o(.constdata)
    P                                        0x080191b8   Data          40  pow.o(.constdata)
    .constdata                               0x080191e0   Section        8  qnan.o(.constdata)
    .constdata                               0x080191e8   Section      129  ctype_o.o(.constdata)
    .constdata                               0x0801926c   Section        4  ctype_o.o(.constdata)
    table                                    0x0801926c   Data           4  ctype_o.o(.constdata)
    .conststring                             0x08019270   Section      261  main.o(.conststring)
    .conststring                             0x08019378   Section       96  api_subdevices.o(.conststring)
    .conststring                             0x080193d8   Section       53  dev_main.o(.conststring)
    .conststring                             0x08019410   Section       48  api_utc.o(.conststring)
    .conststring                             0x08019440   Section      190  tools.o(.conststring)
    .conststring                             0x08019500   Section       13  log.o(.conststring)
    .conststring                             0x08019510   Section      222  sensor.o(.conststring)
    .conststring                             0x080195f0   Section      345  shell.o(.conststring)
    shellCommand                             0x0801976c   Section       80  tools.o(shellCommand)
    __tagsym$$used                           0x0801976c   Number         0  tools.o(shellCommand)
    __tagsym$$used                           0x0801977c   Number         0  tools.o(shellCommand)
    __tagsym$$used                           0x0801978c   Number         0  tools.o(shellCommand)
    __tagsym$$used                           0x0801979c   Number         0  tools.o(shellCommand)
    __tagsym$$used                           0x080197ac   Number         0  tools.o(shellCommand)
    shellCommand                             0x080197bc   Section       16  log.o(shellCommand)
    __tagsym$$used                           0x080197bc   Number         0  log.o(shellCommand)
    shellCommand                             0x080197cc   Section      288  shell.o(shellCommand)
    __tagsym$$used                           0x080197cc   Number         0  shell.o(shellCommand)
    __tagsym$$used                           0x080197dc   Number         0  shell.o(shellCommand)
    __tagsym$$used                           0x080197ec   Number         0  shell.o(shellCommand)
    __tagsym$$used                           0x080197fc   Number         0  shell.o(shellCommand)
    __tagsym$$used                           0x0801980c   Number         0  shell.o(shellCommand)
    __tagsym$$used                           0x0801981c   Number         0  shell.o(shellCommand)
    __tagsym$$used                           0x0801982c   Number         0  shell.o(shellCommand)
    __tagsym$$used                           0x0801983c   Number         0  shell.o(shellCommand)
    __tagsym$$used                           0x0801984c   Number         0  shell.o(shellCommand)
    __tagsym$$used                           0x0801985c   Number         0  shell.o(shellCommand)
    __tagsym$$used                           0x0801986c   Number         0  shell.o(shellCommand)
    __tagsym$$used                           0x0801987c   Number         0  shell.o(shellCommand)
    __tagsym$$used                           0x0801988c   Number         0  shell.o(shellCommand)
    __tagsym$$used                           0x0801989c   Number         0  shell.o(shellCommand)
    __tagsym$$used                           0x080198ac   Number         0  shell.o(shellCommand)
    __tagsym$$used                           0x080198bc   Number         0  shell.o(shellCommand)
    __tagsym$$used                           0x080198cc   Number         0  shell.o(shellCommand)
    __tagsym$$used                           0x080198dc   Number         0  shell.o(shellCommand)
    .data                                    0x20000000   Section       40  main.o(.data)
    lastTick                                 0x20000024   Data           4  main.o(.data)
    .data                                    0x20000028   Section       64  api_subdevices.o(.data)
    g_sensorUnitTypeExist                    0x20000028   Data          40  api_subdevices.o(.data)
    g_subDeviceHandler                       0x20000050   Data          12  api_subdevices.o(.data)
    g_subdevice_timerSample                  0x2000005c   Data           4  api_subdevices.o(.data)
    g_subdevice_timerUpload                  0x20000060   Data           4  api_subdevices.o(.data)
    pSubDeviceSelf                           0x20000064   Data           4  api_subdevices.o(.data)
    .data                                    0x20000068   Section        4  api_adc.o(.data)
    g_pADCConfig_Handler                     0x20000068   Data           4  api_adc.o(.data)
    .data                                    0x2000006c   Section       68  tools.o(.data)
    operation_mode                           0x2000006c   Data           4  tools.o(.data)
    g_bus                                    0x20000070   Data           4  tools.o(.data)
    host_addr                                0x20000074   Data           1  tools.o(.data)
    handlerList                              0x20000080   Data          24  tools.o(.data)
    arglist                                  0x20000098   Data          24  tools.o(.data)
    .data                                    0x200000b0   Section       24  api_sensor.o(.data)
    g_pDev_Handler                           0x200000b0   Data           4  api_sensor.o(.data)
    g_AllDevices                             0x200000b4   Data          20  api_sensor.o(.data)
    .data                                    0x200000c8   Section       24  cjson.o(.data)
    global_error                             0x200000c8   Data           8  cjson.o(.data)
    global_hooks                             0x200000d0   Data          12  cjson.o(.data)
    default_buffer_size                      0x200000dc   Data           4  cjson.o(.data)
    .data                                    0x200000e0   Section       24  log.o(.data)
    handlerList                              0x200000e0   Data          12  log.o(.data)
    arglist                                  0x200000ec   Data          12  log.o(.data)
    .data                                    0x200000f8   Section       16  msghndlr.o(.data)
    xHandleTaskResponseDatWrite              0x200000f8   Data           4  msghndlr.o(.data)
    .data                                    0x20000108   Section      576  sdr.o(.data)
    .data                                    0x20000348   Section       20  ipmdevice.o(.data)
    Major                                    0x20000348   Data           4  ipmdevice.o(.data)
    Minor                                    0x2000034c   Data           4  ipmdevice.o(.data)
    Rev                                      0x20000350   Data           4  ipmdevice.o(.data)
    MinorBCD                                 0x20000354   Data           1  ipmdevice.o(.data)
    firsttime                                0x20000358   Data           4  ipmdevice.o(.data)
    .data                                    0x2000035c   Section        8  bsp_i2c.o(.data)
    xHigherPriorityTaskWoken                 0x2000035c   Data           4  bsp_i2c.o(.data)
    xHigherPriorityTaskWoken                 0x20000360   Data           4  bsp_i2c.o(.data)
    .data                                    0x20000364   Section       52  bsp_uart3.o(.data)
    g_UARTPara                               0x20000364   Data          52  bsp_uart3.o(.data)
    .data                                    0x20000398   Section       57  bsp_usart0.o(.data)
    g_UARTPara                               0x20000398   Data          52  bsp_usart0.o(.data)
    xHigherPriorityTaskWoken                 0x200003cc   Data           4  bsp_usart0.o(.data)
    is_start                                 0x200003d0   Data           1  bsp_usart0.o(.data)
    .data                                    0x200003d4   Section       57  bsp_usart1.o(.data)
    g_UARTPara                               0x200003d4   Data          52  bsp_usart1.o(.data)
    xHigherPriorityTaskWoken                 0x20000408   Data           4  bsp_usart1.o(.data)
    is_start                                 0x2000040c   Data           1  bsp_usart1.o(.data)
    .data                                    0x20000410   Section        8  bsp_gpio.o(.data)
    g_pGpioConfig_Handler                    0x20000410   Data           4  bsp_gpio.o(.data)
    g_gpioAllDevices                         0x20000414   Data           4  bsp_gpio.o(.data)
    .data                                    0x20000418   Section        4  bsp_timer.o(.data)
    .data                                    0x2000041c   Section        4  system_gd32f30x.o(.data)
    .data                                    0x20000420   Section       60  tasks.o(.data)
    pxDelayedTaskList                        0x20000424   Data           4  tasks.o(.data)
    pxOverflowDelayedTaskList                0x20000428   Data           4  tasks.o(.data)
    uxDeletedTasksWaitingCleanUp             0x2000042c   Data           4  tasks.o(.data)
    uxCurrentNumberOfTasks                   0x20000430   Data           4  tasks.o(.data)
    xTickCount                               0x20000434   Data           4  tasks.o(.data)
    uxTopReadyPriority                       0x20000438   Data           4  tasks.o(.data)
    xSchedulerRunning                        0x2000043c   Data           4  tasks.o(.data)
    uxPendedTicks                            0x20000440   Data           4  tasks.o(.data)
    xYieldPending                            0x20000444   Data           4  tasks.o(.data)
    xNumOfOverflows                          0x20000448   Data           4  tasks.o(.data)
    uxTaskNumber                             0x2000044c   Data           4  tasks.o(.data)
    xNextTaskUnblockTime                     0x20000450   Data           4  tasks.o(.data)
    xIdleTaskHandle                          0x20000454   Data           4  tasks.o(.data)
    uxSchedulerSuspended                     0x20000458   Data           4  tasks.o(.data)
    .data                                    0x2000045c   Section       20  timers.o(.data)
    pxCurrentTimerList                       0x2000045c   Data           4  timers.o(.data)
    pxOverflowTimerList                      0x20000460   Data           4  timers.o(.data)
    xTimerQueue                              0x20000464   Data           4  timers.o(.data)
    xTimerTaskHandle                         0x20000468   Data           4  timers.o(.data)
    xLastTime                                0x2000046c   Data           4  timers.o(.data)
    .data                                    0x20000470   Section       24  heap_4.o(.data)
    xStart                                   0x20000470   Data           8  heap_4.o(.data)
    pxEnd                                    0x20000478   Data           4  heap_4.o(.data)
    xFreeBytesRemaining                      0x2000047c   Data           4  heap_4.o(.data)
    xMinimumEverFreeBytesRemaining           0x20000480   Data           4  heap_4.o(.data)
    xBlockAllocatedBit                       0x20000484   Data           4  heap_4.o(.data)
    .data                                    0x20000488   Section       12  port.o(.data)
    uxCriticalNesting                        0x20000488   Data           4  port.o(.data)
    ucMaxSysCallPriority                     0x2000048c   Data           1  port.o(.data)
    ulMaxPRIGROUPValue                       0x20000490   Data           4  port.o(.data)
    .data                                    0x20000494   Section       84  shell.o(.data)
    shellText                                0x20000494   Data          84  shell.o(.data)
    .data                                    0x200004e8   Section        4  rand.o(.data)
    _rand_state                              0x200004e8   Data           4  rand.o(.data)
    .data                                    0x200004ec   Section        4  strtok.o(.data)
    state                                    0x200004ec   Data           4  strtok.o(.data)
    .data                                    0x200004f0   Section        4  stdout.o(.data)
    .data                                    0x200004f4   Section        4  mvars.o(.data)
    .data                                    0x200004f8   Section        4  mvars.o(.data)
    .data                                    0x200004fc   Section        4  errno.o(.data)
    _errno                                   0x200004fc   Data           4  errno.o(.data)
    .bss                                     0x20000500   Section       84  api_subdevices.o(.bss)
    g_AllModes                               0x20000500   Data          84  api_subdevices.o(.bss)
    .bss                                     0x20000554   Section       48  dev_main.o(.bss)
    g_sensorVal_main                         0x20000554   Data          48  dev_main.o(.bss)
    .bss                                     0x20000584   Section       24  dev_net.o(.bss)
    g_adcVal_net                             0x20000584   Data          12  dev_net.o(.bss)
    g_sensorVal_net                          0x20000590   Data          12  dev_net.o(.bss)
    .bss                                     0x2000059c   Section       24  dev_power.o(.bss)
    g_adcVal_power                           0x2000059c   Data          12  dev_power.o(.bss)
    g_sensorVal_power                        0x200005a8   Data          12  dev_power.o(.bss)
    .bss                                     0x200005b4   Section       24  dev_storage0.o(.bss)
    g_adcVal_storage0                        0x200005b4   Data          12  dev_storage0.o(.bss)
    g_sensorVal_storage0                     0x200005c0   Data          12  dev_storage0.o(.bss)
    .bss                                     0x200005cc   Section       24  dev_switch.o(.bss)
    g_adcVal_switch                          0x200005cc   Data          12  dev_switch.o(.bss)
    g_sensorVal_switch                       0x200005d8   Data          12  dev_switch.o(.bss)
    .bss                                     0x200005e4   Section       32  api_fan.o(.bss)
    g_Fan                                    0x200005e4   Data          32  api_fan.o(.bss)
    .bss                                     0x20000604   Section       15  cjson.o(.bss)
    version                                  0x20000604   Data          15  cjson.o(.bss)
    .bss                                     0x20000614   Section     4528  msghndlr.o(.bss)
    .bss                                     0x200017c4   Section       64  sdr.o(.bss)
    .bss                                     0x20001804   Section       48  bsp_capture.o(.bss)
    .bss                                     0x20001834   Section      111  bsp_i2c.o(.bss)
    g_i2c_Req                                0x20001834   Data         111  bsp_i2c.o(.bss)
    .bss                                     0x200018a3   Section      100  bsp_uart3.o(.bss)
    g_buffSend                               0x200018a3   Data          50  bsp_uart3.o(.bss)
    g_buffRec                                0x200018d5   Data          50  bsp_uart3.o(.bss)
    .bss                                     0x20001907   Section      561  bsp_usart0.o(.bss)
    g_buffSend                               0x20001907   Data         400  bsp_usart0.o(.bss)
    g_buffRec                                0x20001a97   Data          50  bsp_usart0.o(.bss)
    g_uart_Req                               0x20001ac9   Data         111  bsp_usart0.o(.bss)
    .bss                                     0x20001b38   Section      100  bsp_usart1.o(.bss)
    g_buffSend                               0x20001b38   Data          50  bsp_usart1.o(.bss)
    g_buffRec                                0x20001b6a   Data          50  bsp_usart1.o(.bss)
    .bss                                     0x20001b9c   Section       12  bsp_uartcomm.o(.bss)
    g_pUARTSHandler                          0x20001b9c   Data          12  bsp_uartcomm.o(.bss)
    .bss                                     0x20001ba8   Section      120  queue.o(.bss)
    .bss                                     0x20001c20   Section      740  tasks.o(.bss)
    pxReadyTasksLists                        0x20001c20   Data         640  tasks.o(.bss)
    xDelayedTaskList1                        0x20001ea0   Data          20  tasks.o(.bss)
    xDelayedTaskList2                        0x20001eb4   Data          20  tasks.o(.bss)
    xPendingReadyList                        0x20001ec8   Data          20  tasks.o(.bss)
    xTasksWaitingTermination                 0x20001edc   Data          20  tasks.o(.bss)
    xSuspendedTaskList                       0x20001ef0   Data          20  tasks.o(.bss)
    .bss                                     0x20001f04   Section       40  timers.o(.bss)
    xActiveTimerList1                        0x20001f04   Data          20  timers.o(.bss)
    xActiveTimerList2                        0x20001f18   Data          20  timers.o(.bss)
    .bss                                     0x20001f2c   Section    35840  heap_4.o(.bss)
    ucHeap                                   0x20001f2c   Data       35840  heap_4.o(.bss)
    .bss                                     0x2000ab2c   Section       29  shell.o(.bss)
    shellList                                0x2000ab2c   Data          20  shell.o(.bss)
    buffer                                   0x2000ab40   Data           9  shell.o(.bss)
    .bss                                     0x2000ab4c   Section      308  shell_port.o(.bss)
    HEAP                                     0x2000ac80   Section     1024  startup_gd32f30x_cl.o(HEAP)
    STACK                                    0x2000b080   Section     1024  startup_gd32f30x_cl.o(STACK)

    Global Symbols

    Symbol Name                              Value     Ov Type        Size  Object(Section)

    BuildAttributes$$THM_ISAv4$E$P$D$K$B$S$7EM$VFPi3$EXTD16$VFPS$VFMA$PE$A:L22UL41UL21$X:L11$S22US41US21$IEEE1$IW$USESV6$~STKCKD$USESV7$~SHL$OTIME$ROPI$IEEEX$EBA8$MICROLIB$REQ8$PRES8$EABIv2 0x00000000   Number         0  anon$$obj.o ABSOLUTE
    __ARM_use_no_argv                        0x00000000   Number         0  main.o ABSOLUTE
    _printf_a                                0x00000000   Number         0  stubs.o ABSOLUTE
    _printf_c                                0x00000000   Number         0  stubs.o ABSOLUTE
    _printf_charcount                        0x00000000   Number         0  stubs.o ABSOLUTE
    _printf_d                                0x00000000   Number         0  stubs.o ABSOLUTE
    _printf_e                                0x00000000   Number         0  stubs.o ABSOLUTE
    _printf_f                                0x00000000   Number         0  stubs.o ABSOLUTE
    _printf_flags                            0x00000000   Number         0  stubs.o ABSOLUTE
    _printf_fp_dec                           0x00000000   Number         0  stubs.o ABSOLUTE
    _printf_fp_hex                           0x00000000   Number         0  stubs.o ABSOLUTE
    _printf_g                                0x00000000   Number         0  stubs.o ABSOLUTE
    _printf_i                                0x00000000   Number         0  stubs.o ABSOLUTE
    _printf_int_dec                          0x00000000   Number         0  stubs.o ABSOLUTE
    _printf_l                                0x00000000   Number         0  stubs.o ABSOLUTE
    _printf_lc                               0x00000000   Number         0  stubs.o ABSOLUTE
    _printf_ll                               0x00000000   Number         0  stubs.o ABSOLUTE
    _printf_lld                              0x00000000   Number         0  stubs.o ABSOLUTE
    _printf_lli                              0x00000000   Number         0  stubs.o ABSOLUTE
    _printf_llo                              0x00000000   Number         0  stubs.o ABSOLUTE
    _printf_llu                              0x00000000   Number         0  stubs.o ABSOLUTE
    _printf_llx                              0x00000000   Number         0  stubs.o ABSOLUTE
    _printf_longlong_dec                     0x00000000   Number         0  stubs.o ABSOLUTE
    _printf_longlong_hex                     0x00000000   Number         0  stubs.o ABSOLUTE
    _printf_longlong_oct                     0x00000000   Number         0  stubs.o ABSOLUTE
    _printf_ls                               0x00000000   Number         0  stubs.o ABSOLUTE
    _printf_mbtowc                           0x00000000   Number         0  stubs.o ABSOLUTE
    _printf_n                                0x00000000   Number         0  stubs.o ABSOLUTE
    _printf_o                                0x00000000   Number         0  stubs.o ABSOLUTE
    _printf_p                                0x00000000   Number         0  stubs.o ABSOLUTE
    _printf_percent                          0x00000000   Number         0  stubs.o ABSOLUTE
    _printf_pre_padding                      0x00000000   Number         0  stubs.o ABSOLUTE
    _printf_return_value                     0x00000000   Number         0  stubs.o ABSOLUTE
    _printf_s                                0x00000000   Number         0  stubs.o ABSOLUTE
    _printf_sizespec                         0x00000000   Number         0  stubs.o ABSOLUTE
    _printf_str                              0x00000000   Number         0  stubs.o ABSOLUTE
    _printf_truncate_signed                  0x00000000   Number         0  stubs.o ABSOLUTE
    _printf_truncate_unsigned                0x00000000   Number         0  stubs.o ABSOLUTE
    _printf_u                                0x00000000   Number         0  stubs.o ABSOLUTE
    _printf_wc                               0x00000000   Number         0  stubs.o ABSOLUTE
    _printf_wctomb                           0x00000000   Number         0  stubs.o ABSOLUTE
    _printf_widthprec                        0x00000000   Number         0  stubs.o ABSOLUTE
    _printf_x                                0x00000000   Number         0  stubs.o ABSOLUTE
    __arm_fini_                               - Undefined Weak Reference
    __cpp_initialize__aeabi_                  - Undefined Weak Reference
    __cxa_finalize                            - Undefined Weak Reference
    _clock_init                               - Undefined Weak Reference
    _microlib_exit                            - Undefined Weak Reference
    _scanf_longlong                           - Undefined Weak Reference
    _scanf_string                             - Undefined Weak Reference
    __Vectors_Size                           0x00000150   Number         0  startup_gd32f30x_cl.o ABSOLUTE
    __Vectors                                0x08000000   Data           4  startup_gd32f30x_cl.o(RESET)
    __Vectors_End                            0x08000150   Data           0  startup_gd32f30x_cl.o(RESET)
    __main                                   0x08000151   Thumb Code     0  entry.o(.ARM.Collect$$$$00000000)
    _main_stk                                0x08000151   Thumb Code     0  entry2.o(.ARM.Collect$$$$00000001)
    _main_scatterload                        0x08000155   Thumb Code     0  entry5.o(.ARM.Collect$$$$00000004)
    __main_after_scatterload                 0x08000159   Thumb Code     0  entry5.o(.ARM.Collect$$$$00000004)
    _main_clock                              0x08000159   Thumb Code     0  entry7b.o(.ARM.Collect$$$$00000008)
    _main_cpp_init                           0x08000159   Thumb Code     0  entry8b.o(.ARM.Collect$$$$0000000A)
    _main_init                               0x08000159   Thumb Code     0  entry9a.o(.ARM.Collect$$$$0000000B)
    __rt_lib_shutdown_fini                   0x08000161   Thumb Code     0  entry12b.o(.ARM.Collect$$$$0000000E)
    __rt_final_cpp                           0x08000165   Thumb Code     0  entry10a.o(.ARM.Collect$$$$0000000F)
    __rt_final_exit                          0x08000165   Thumb Code     0  entry11a.o(.ARM.Collect$$$$00000011)
    SVC_Handler                              0x08000169   Thumb Code    32  port.o(.emb_text)
    __asm___6_port_c_39a90d8d__prvStartFirstTask 0x0800018d   Thumb Code    28  port.o(.emb_text)
    PendSV_Handler                           0x080001ad   Thumb Code    72  port.o(.emb_text)
    vPortGetIPSR                             0x080001f9   Thumb Code     6  port.o(.emb_text)
    NMI_Handler                              0x080001ff   Thumb Code     2  gd32f30x_it.o(.text)
    HardFault_Handler                        0x08000201   Thumb Code     4  gd32f30x_it.o(.text)
    MemManage_Handler                        0x08000205   Thumb Code     4  gd32f30x_it.o(.text)
    BusFault_Handler                         0x08000209   Thumb Code     4  gd32f30x_it.o(.text)
    UsageFault_Handler                       0x0800020d   Thumb Code     4  gd32f30x_it.o(.text)
    DebugMon_Handler                         0x08000211   Thumb Code     2  gd32f30x_it.o(.text)
    SysTick_Handler                          0x08000213   Thumb Code    16  gd32f30x_it.o(.text)
    ENET_IRQHandler                          0x08000223   Thumb Code     2  gd32f30x_it.o(.text)
    misc_task                                0x080003e5   Thumb Code    46  main.o(.text)
    com_task                                 0x08000413   Thumb Code    12  main.o(.text)
    start_task                               0x0800041f   Thumb Code   268  main.o(.text)
    main                                     0x0800052b   Thumb Code   192  main.o(.text)
    time_update                              0x080005eb   Thumb Code    12  main.o(.text)
    vApplicationIdleHook                     0x080005f7   Thumb Code    34  main.o(.text)
    bsp_systick_config                       0x080007c9   Thumb Code    74  systick.o(.text)
    GetTickMs                                0x08000813   Thumb Code     6  systick.o(.text)
    platform_init                            0x08000829   Thumb Code     2  gd32f30x_platform.o(.text)
    SubDevice_CheckAndPrintMode              0x080008bd   Thumb Code   362  api_subdevices.o(.text)
    SubDevice_GetMySlaveAddress              0x08000f49   Thumb Code    56  api_subdevices.o(.text)
    SubDevice_GetBus                         0x08000f81   Thumb Code     6  api_subdevices.o(.text)
    SubDevice_IsSelfMaster                   0x080010b9   Thumb Code    18  api_subdevices.o(.text)
    SubDevice_Init                           0x080010cb   Thumb Code   640  api_subdevices.o(.text)
    SubDevice_GetMyMode                      0x0800134b   Thumb Code    18  api_subdevices.o(.text)
    SubDevice_IsOnLine                       0x0800135d   Thumb Code    18  api_subdevices.o(.text)
    SubDevice_GetSelf                        0x0800136f   Thumb Code     6  api_subdevices.o(.text)
    SubDevice_Management                     0x080013c1   Thumb Code    94  api_subdevices.o(.text)
    adc_init                                 0x08001611   Thumb Code    16  api_adc.o(.text)
    adc_getChannelSize                       0x08001621   Thumb Code    18  api_adc.o(.text)
    adc_getValByIndex                        0x08001633   Thumb Code    52  api_adc.o(.text)
    adc_getRawValBySensorNum                 0x08001667   Thumb Code    64  api_adc.o(.text)
    adc_sampleVal2Temp1                      0x080016a7   Thumb Code   248  api_adc.o(.text)
    adc_sample_all                           0x08001805   Thumb Code   230  api_adc.o(.text)
    fan_getFanSensorNum                      0x08001959   Thumb Code    42  api_fan.o(.text)
    fan_getFanNum                            0x08001983   Thumb Code     4  api_fan.o(.text)
    fan_get_rotate_rpm                       0x08001987   Thumb Code    88  api_fan.o(.text)
    fan_set_duty_percent                     0x08001ad1   Thumb Code    62  api_fan.o(.text)
    fan_init                                 0x08001b0f   Thumb Code   154  api_fan.o(.text)
    fan_set_rotate_rpm                       0x08001ba9   Thumb Code    38  api_fan.o(.text)
    fan_set_duty                             0x08001bcf   Thumb Code    38  api_fan.o(.text)
    GetBmcFirmwareVersion                    0x08001c69   Thumb Code    58  api_cpu.o(.text)
    GetBmcRunTime                            0x08001ca3   Thumb Code     6  api_cpu.o(.text)
    split                                    0x08001d63   Thumb Code    80  api_utc.o(.text)
    currentSecsSinceEpoch                    0x08001f55   Thumb Code   132  api_utc.o(.text)
    i2cTest                                  0x080023a9   Thumb Code    46  tools.o(.text)
    reboot                                   0x080029cb   Thumb Code     4  tools.o(.text)
    version                                  0x080029cf   Thumb Code    86  tools.o(.text)
    sensor                                   0x08002a25   Thumb Code   548  tools.o(.text)
    shell_exit                               0x08002c49   Thumb Code     4  tools.o(.text)
    StackFlow                                0x08002c7b   Thumb Code    28  tools.o(.text)
    Delay_NoSchedue                          0x08002c97   Thumb Code    12  tools.o(.text)
    FIFO_Init                                0x08002d3d   Thumb Code    22  fifo.o(.text)
    FIFO_Reset                               0x08002d53   Thumb Code    14  fifo.o(.text)
    FIFO_Write                               0x08002d61   Thumb Code    80  fifo.o(.text)
    FIFO_Writes                              0x08002db1   Thumb Code    96  fifo.o(.text)
    FIFO_Read                                0x08002e11   Thumb Code    78  fifo.o(.text)
    FIFO_ReadN                               0x08002e5f   Thumb Code   110  fifo.o(.text)
    api_sensorGetUnitType                    0x08002ecd   Thumb Code    20  api_sensor.o(.text)
    api_sensorConvertIPMBValBySensorNum      0x08002ee1   Thumb Code   106  api_sensor.o(.text)
    api_sensorGetSensorCount                 0x08002f4b   Thumb Code    18  api_sensor.o(.text)
    api_getDevHandler                        0x08002f5d   Thumb Code    34  api_sensor.o(.text)
    api_sensorGetIPMBVal                     0x08002f7f   Thumb Code    68  api_sensor.o(.text)
    api_sensorGetMySensorNumByIdex           0x08002fc3   Thumb Code    38  api_sensor.o(.text)
    api_sensorGetSensorNumByIdex             0x08002fe9   Thumb Code    38  api_sensor.o(.text)
    api_sensorConvert2HumanVal               0x0800300f   Thumb Code    50  api_sensor.o(.text)
    api_sensorSetValRaw                      0x08003041   Thumb Code    68  api_sensor.o(.text)
    Dev_Task                                 0x08003085   Thumb Code    62  api_sensor.o(.text)
    cJSON_GetErrorPtr                        0x080030cd   Thumb Code    12  cjson.o(.text)
    cJSON_IsString                           0x080030d9   Thumb Code    22  cjson.o(.text)
    cJSON_GetStringValue                     0x080030ef   Thumb Code    20  cjson.o(.text)
    cJSON_IsNumber                           0x08003103   Thumb Code    22  cjson.o(.text)
    cJSON_GetNumberValue                     0x08003119   Thumb Code    24  cjson.o(.text)
    cJSON_Version                            0x08003131   Thumb Code    22  cjson.o(.text)
    cJSON_InitHooks                          0x080031c7   Thumb Code    82  cjson.o(.text)
    cJSON_Delete                             0x08003233   Thumb Code    84  cjson.o(.text)
    cJSON_SetNumberHelper                    0x080033c7   Thumb Code    96  cjson.o(.text)
    cJSON_free                               0x08003427   Thumb Code    14  cjson.o(.text)
    cJSON_SetValuestring                     0x08003435   Thumb Code    94  cjson.o(.text)
    cJSON_ParseWithLengthOpts                0x08004055   Thumb Code   204  cjson.o(.text)
    cJSON_ParseWithOpts                      0x08004121   Thumb Code    40  cjson.o(.text)
    cJSON_Parse                              0x08004149   Thumb Code    16  cjson.o(.text)
    cJSON_ParseWithLength                    0x08004159   Thumb Code    20  cjson.o(.text)
    cJSON_Print                              0x08004551   Thumb Code    16  cjson.o(.text)
    cJSON_PrintUnformatted                   0x08004561   Thumb Code    16  cjson.o(.text)
    cJSON_PrintBuffered                      0x08004571   Thumb Code    90  cjson.o(.text)
    cJSON_PrintPreallocated                  0x080045cb   Thumb Code    64  cjson.o(.text)
    cJSON_GetArraySize                       0x0800460b   Thumb Code    28  cjson.o(.text)
    cJSON_GetArrayItem                       0x08004645   Thumb Code    24  cjson.o(.text)
    cJSON_GetObjectItem                      0x080046af   Thumb Code    18  cjson.o(.text)
    cJSON_GetObjectItemCaseSensitive         0x080046c1   Thumb Code    18  cjson.o(.text)
    cJSON_HasObjectItem                      0x080046d3   Thumb Code    24  cjson.o(.text)
    cJSON_AddItemToArray                     0x08004763   Thumb Code    16  cjson.o(.text)
    cJSON_AddItemToObject                    0x080047ef   Thumb Code    26  cjson.o(.text)
    cJSON_AddItemToObjectCS                  0x08004809   Thumb Code    26  cjson.o(.text)
    cJSON_AddItemReferenceToArray            0x08004823   Thumb Code    32  cjson.o(.text)
    cJSON_AddItemReferenceToObject           0x08004843   Thumb Code    44  cjson.o(.text)
    cJSON_CreateNull                         0x0800486f   Thumb Code    20  cjson.o(.text)
    cJSON_AddNullToObject                    0x08004883   Thumb Code    52  cjson.o(.text)
    cJSON_CreateTrue                         0x080048b7   Thumb Code    20  cjson.o(.text)
    cJSON_AddTrueToObject                    0x080048cb   Thumb Code    44  cjson.o(.text)
    cJSON_CreateFalse                        0x080048f7   Thumb Code    20  cjson.o(.text)
    cJSON_AddFalseToObject                   0x0800490b   Thumb Code    44  cjson.o(.text)
    cJSON_CreateBool                         0x08004937   Thumb Code    28  cjson.o(.text)
    cJSON_AddBoolToObject                    0x08004953   Thumb Code    48  cjson.o(.text)
    cJSON_CreateNumber                       0x08004983   Thumb Code   102  cjson.o(.text)
    cJSON_AddNumberToObject                  0x080049e9   Thumb Code    72  cjson.o(.text)
    cJSON_CreateString                       0x08004a31   Thumb Code    46  cjson.o(.text)
    cJSON_AddStringToObject                  0x08004a5f   Thumb Code    48  cjson.o(.text)
    cJSON_CreateRaw                          0x08004a8f   Thumb Code    46  cjson.o(.text)
    cJSON_AddRawToObject                     0x08004abd   Thumb Code    48  cjson.o(.text)
    cJSON_CreateObject                       0x08004aed   Thumb Code    20  cjson.o(.text)
    cJSON_AddObjectToObject                  0x08004b01   Thumb Code    44  cjson.o(.text)
    cJSON_CreateArray                        0x08004b2d   Thumb Code    20  cjson.o(.text)
    cJSON_AddArrayToObject                   0x08004b41   Thumb Code    44  cjson.o(.text)
    cJSON_DetachItemViaPointer               0x08004b6d   Thumb Code    64  cjson.o(.text)
    cJSON_DetachItemFromArray                0x08004bad   Thumb Code    34  cjson.o(.text)
    cJSON_DeleteItemFromArray                0x08004bcf   Thumb Code    22  cjson.o(.text)
    cJSON_DetachItemFromObject               0x08004be5   Thumb Code    26  cjson.o(.text)
    cJSON_DetachItemFromObjectCaseSensitive  0x08004bff   Thumb Code    26  cjson.o(.text)
    cJSON_DeleteItemFromObject               0x08004c19   Thumb Code    22  cjson.o(.text)
    cJSON_DeleteItemFromObjectCaseSensitive  0x08004c2f   Thumb Code    22  cjson.o(.text)
    cJSON_InsertItemInArray                  0x08004c45   Thumb Code    70  cjson.o(.text)
    cJSON_ReplaceItemViaPointer              0x08004c8b   Thumb Code   116  cjson.o(.text)
    cJSON_ReplaceItemInArray                 0x08004cff   Thumb Code    42  cjson.o(.text)
    cJSON_ReplaceItemInObject                0x08004d83   Thumb Code    22  cjson.o(.text)
    cJSON_ReplaceItemInObjectCaseSensitive   0x08004d99   Thumb Code    22  cjson.o(.text)
    cJSON_CreateStringReference              0x08004daf   Thumb Code    32  cjson.o(.text)
    cJSON_CreateObjectReference              0x08004dcf   Thumb Code    32  cjson.o(.text)
    cJSON_CreateArrayReference               0x08004def   Thumb Code    32  cjson.o(.text)
    cJSON_CreateIntArray                     0x08004e0f   Thumb Code   124  cjson.o(.text)
    cJSON_CreateFloatArray                   0x08004e8b   Thumb Code   134  cjson.o(.text)
    cJSON_CreateDoubleArray                  0x08004f11   Thumb Code   112  cjson.o(.text)
    cJSON_CreateStringArray                  0x08004f81   Thumb Code   100  cjson.o(.text)
    cJSON_Duplicate                          0x08004fe5   Thumb Code   188  cjson.o(.text)
    cJSON_Minify                             0x08005175   Thumb Code   154  cjson.o(.text)
    cJSON_IsInvalid                          0x0800520f   Thumb Code    20  cjson.o(.text)
    cJSON_IsFalse                            0x08005223   Thumb Code    20  cjson.o(.text)
    cJSON_IsTrue                             0x08005237   Thumb Code    22  cjson.o(.text)
    cJSON_IsBool                             0x0800524d   Thumb Code    24  cjson.o(.text)
    cJSON_IsNull                             0x08005265   Thumb Code    22  cjson.o(.text)
    cJSON_IsArray                            0x0800527b   Thumb Code    22  cjson.o(.text)
    cJSON_IsObject                           0x08005291   Thumb Code    22  cjson.o(.text)
    cJSON_IsRaw                              0x080052a7   Thumb Code    22  cjson.o(.text)
    cJSON_Compare                            0x080052bd   Thumb Code   378  cjson.o(.text)
    cJSON_malloc                             0x08005437   Thumb Code    14  cjson.o(.text)
    CalculateCheckSum2                       0x08005791   Thumb Code    30  ipmi_common.o(.text)
    CalculateCheckSum                        0x080057af   Thumb Code    30  ipmi_common.o(.text)
    CheckMsgValidation                       0x080057cd   Thumb Code    56  ipmi_common.o(.text)
    EncodeSerialPkt                          0x08005805   Thumb Code   230  serialifc.o(.text)
    ProcessSerialReq                         0x08005b41   Thumb Code    40  serialifc.o(.text)
    OnSerialByteReceived                     0x08005b99   Thumb Code     2  serialifc.o(.text)
    ProcessSerialMessage                     0x08005c79   Thumb Code   116  serial.o(.text)
    ChassisCtrl                              0x08005ead   Thumb Code   208  chassisctrl.o(.text)
    MsgHndlrInit                             0x0800607d   Thumb Code    18  msghndlr.o(.text)
    ipmb_set_dualaddr                        0x0800608f   Thumb Code    16  msghndlr.o(.text)
    GetCmdHndlr                              0x08006227   Thumb Code    26  msghndlr.o(.text)
    GetMsgHndlrMap                           0x08006241   Thumb Code    60  msghndlr.o(.text)
    SwapIPMIMsgHdr                           0x0800627d   Thumb Code    72  msghndlr.o(.text)
    ProcessIPMIReq                           0x080062c5   Thumb Code   636  msghndlr.o(.text)
    MsgCoreHndlr                             0x08006541   Thumb Code   498  msghndlr.o(.text)
    SendMsgAndWait                           0x08006733   Thumb Code    58  msghndlr.o(.text)
    ProcessIPMBForardResponse                0x0800676d   Thumb Code   188  msghndlr.o(.text)
    UnImplementedFunc                        0x08006829   Thumb Code    12  msghndlr.o(.text)
    GroupExtnGetMsgHndlrMap                  0x08006835   Thumb Code     8  msghndlr.o(.text)
    RespondSendMessage                       0x0800683d   Thumb Code     2  msghndlr.o(.text)
    GetIfcSupport                            0x0800683f   Thumb Code    96  msghndlr.o(.text)
    ResetWDT                                 0x0800697f   Thumb Code    50  appdevice.o(.text)
    SetWDT                                   0x080069b1   Thumb Code    70  appdevice.o(.text)
    GetWDT                                   0x080069f7   Thumb Code    20  appdevice.o(.text)
    SetBMCGlobalEnables                      0x08006a0b   Thumb Code    20  appdevice.o(.text)
    GetBMCGlobalEnables                      0x08006a1f   Thumb Code    20  appdevice.o(.text)
    ClrMsgFlags                              0x08006a33   Thumb Code    36  appdevice.o(.text)
    GetMsgFlags                              0x08006a57   Thumb Code    16  appdevice.o(.text)
    EnblMsgChannelRcv                        0x08006a67   Thumb Code     8  appdevice.o(.text)
    GetMessage                               0x08006a6f   Thumb Code     8  appdevice.o(.text)
    SendMessage                              0x08006a77   Thumb Code   434  appdevice.o(.text)
    ReadEvtMsgBuffer                         0x08006c29   Thumb Code     8  appdevice.o(.text)
    GetBTIfcCap                              0x08006c31   Thumb Code    52  appdevice.o(.text)
    GetSystemGUID                            0x08006c65   Thumb Code    16  appdevice.o(.text)
    GetChAuthCap                             0x08006c75   Thumb Code   130  appdevice.o(.text)
    GetSessionChallenge                      0x08006cf7   Thumb Code    26  appdevice.o(.text)
    ActivateSession                          0x08006d11   Thumb Code    52  appdevice.o(.text)
    SetSessionPrivLevel                      0x08006d45   Thumb Code    24  appdevice.o(.text)
    CloseSession                             0x08006d5d   Thumb Code   160  appdevice.o(.text)
    GetSessionInfo                           0x08006dfd   Thumb Code     8  appdevice.o(.text)
    GetAuthCode                              0x08006e15   Thumb Code     8  appdevice.o(.text)
    SetChAccess                              0x08006e1d   Thumb Code    12  appdevice.o(.text)
    GetChAccess                              0x08006e29   Thumb Code     8  appdevice.o(.text)
    GetChInfo                                0x08006e31   Thumb Code     8  appdevice.o(.text)
    IsChannelSuppGroups                      0x08006e39   Thumb Code     6  appdevice.o(.text)
    ModifyUsrGrp                             0x08006e3f   Thumb Code     8  appdevice.o(.text)
    SetUserAccess                            0x08006e47   Thumb Code    12  appdevice.o(.text)
    GetUserAccess                            0x08006e53   Thumb Code     8  appdevice.o(.text)
    SetUserName                              0x08006e5b   Thumb Code    12  appdevice.o(.text)
    GetUserName                              0x08006e67   Thumb Code     8  appdevice.o(.text)
    SetUserPassword                          0x08006e6f   Thumb Code     8  appdevice.o(.text)
    MasterWriteRead                          0x08006e77   Thumb Code    20  appdevice.o(.text)
    GetSystemInfoParam                       0x08006e8b   Thumb Code     8  appdevice.o(.text)
    validatestring                           0x08006e93   Thumb Code    72  appdevice.o(.text)
    SetSystemInfoParam                       0x08006edb   Thumb Code     8  appdevice.o(.text)
    SetFan                                   0x08006f37   Thumb Code   124  oem.o(.text)
    GetBladId                                0x08006fb3   Thumb Code    40  oem.o(.text)
    UpdateFirmware                           0x08006fdb   Thumb Code     8  oem.o(.text)
    GetCPUInfo                               0x08006fe3   Thumb Code   110  oem.o(.text)
    GetBMCInfo                               0x08007051   Thumb Code    48  oem.o(.text)
    SR_LoadSDRDefaults                       0x08007089   Thumb Code     2  sensor.o(.text)
    InitSensor                               0x080071b5   Thumb Code  2316  sensor.o(.text)
    SR_FindSDR                               0x08007ac1   Thumb Code     8  sensor.o(.text)
    SR_GetDevSDRInfo                         0x08007ac9   Thumb Code    24  sensor.o(.text)
    GetDevSDRInfo                            0x08007ae1   Thumb Code    56  sensor.o(.text)
    GetDevSDR                                0x08007b19   Thumb Code    28  sensor.o(.text)
    ReserveDevSDRRepository                  0x08007b35   Thumb Code    28  sensor.o(.text)
    SetSensorType                            0x08007b51   Thumb Code   116  sensor.o(.text)
    GetSensorType                            0x08007bc5   Thumb Code    92  sensor.o(.text)
    ReArmSensor                              0x08007c21   Thumb Code   226  sensor.o(.text)
    GetSensorEventStatus                     0x08007d03   Thumb Code   550  sensor.o(.text)
    SetSensorHysterisis                      0x08007f29   Thumb Code   186  sensor.o(.text)
    GetSensorHysterisis                      0x08007fe3   Thumb Code   178  sensor.o(.text)
    SetSensorThresholds                      0x08008095   Thumb Code   620  sensor.o(.text)
    GetSensorThresholds                      0x08008301   Thumb Code   118  sensor.o(.text)
    GetSensorReadingFactors                  0x08008377   Thumb Code    80  sensor.o(.text)
    SetSensorEventEnable                     0x080083c7   Thumb Code   594  sensor.o(.text)
    GetSensorEventEnable                     0x08008619   Thumb Code   222  sensor.o(.text)
    InitSensorScanningBit                    0x080088ef   Thumb Code   436  sensor.o(.text)
    CompareValues                            0x08008aa3   Thumb Code    50  sensor.o(.text)
    GetSensorReading                         0x08008ad5   Thumb Code   466  sensor.o(.text)
    SetSensorReading                         0x08008ca7   Thumb Code  1034  sensor.o(.text)
    SR_GetSensorSDR                          0x080090b1   Thumb Code   100  sensor.o(.text)
    GetRecordIdsforDCMISensor                0x08009115   Thumb Code   578  sensor.o(.text)
    GetDCMITempReading                       0x08009357   Thumb Code  1290  sensor.o(.text)
    GetSDRRepositoryNum                      0x0800986d   Thumb Code     8  sdr.o(.text)
    GetSDRRepositoryInfo                     0x08009875   Thumb Code    56  sdr.o(.text)
    GetSDRRepositoryAllocInfo                0x080098ad   Thumb Code    36  sdr.o(.text)
    ReserveSDRRepository                     0x080098d1   Thumb Code    34  sdr.o(.text)
    ReadSensorRecBySensorNum                 0x08009927   Thumb Code   162  sdr.o(.text)
    GetSDR                                   0x080099c9   Thumb Code   152  sdr.o(.text)
    WriteSDRRepository                       0x08009ae9   Thumb Code    72  sdr.o(.text)
    AddSDR                                   0x08009cf3   Thumb Code   102  sdr.o(.text)
    PartialAddSDR                            0x08009fbf   Thumb Code   192  sdr.o(.text)
    ReadSDRRepository                        0x0800a07f   Thumb Code    76  sdr.o(.text)
    DeleteSDR                                0x0800a1e7   Thumb Code    78  sdr.o(.text)
    ClearSDRRepository                       0x0800a34d   Thumb Code   104  sdr.o(.text)
    GetSDRRepositoryTime                     0x0800a3b5   Thumb Code    24  sdr.o(.text)
    SetSDRRepositoryTime                     0x0800a3cd   Thumb Code    24  sdr.o(.text)
    EnterSDRUpdateMode                       0x0800a3e5   Thumb Code    38  sdr.o(.text)
    ExitSDRUpdateMode                        0x0800a40b   Thumb Code    48  sdr.o(.text)
    SDR_GetNextSDRRec                        0x0800a43b   Thumb Code    16  sdr.o(.text)
    SDR_GetFirstSDRRec                       0x0800a44b   Thumb Code    14  sdr.o(.text)
    RunInitializationAgent                   0x0800a909   Thumb Code   274  sdr.o(.text)
    GetSDRRec                                0x0800aa3f   Thumb Code    96  sdr.o(.text)
    InitSDR                                  0x0800aa9f   Thumb Code   304  sdr.o(.text)
    ReadSensorRecByID                        0x0800abcf   Thumb Code    24  sdr.o(.text)
    SensorGetUnitType                        0x0800abe7   Thumb Code   114  sdr.o(.text)
    APPReserved                              0x0800ad1f   Thumb Code    16  ipmdevice.o(.text)
    GetDevAddr                               0x0800ad2f   Thumb Code     8  ipmdevice.o(.text)
    GetDevID                                 0x0800ad37   Thumb Code   140  ipmdevice.o(.text)
    ColdReset                                0x0800adc3   Thumb Code   136  ipmdevice.o(.text)
    WarmReset                                0x0800ae4b   Thumb Code    12  ipmdevice.o(.text)
    GetSelfTestResults                       0x0800ae57   Thumb Code    16  ipmdevice.o(.text)
    MfgTestOn                                0x0800ae67   Thumb Code    20  ipmdevice.o(.text)
    SetACPIPwrState                          0x0800ae7b   Thumb Code    10  ipmdevice.o(.text)
    GetACPIPwrState                          0x0800ae85   Thumb Code    16  ipmdevice.o(.text)
    GetDevGUID                               0x0800ae95   Thumb Code    16  ipmdevice.o(.text)
    SetDevAddr                               0x0800aea5   Thumb Code     8  ipmdevice.o(.text)
    GetChassisCaps                           0x0800af51   Thumb Code    92  chassisdevice.o(.text)
    GetChassisStatus                         0x0800afad   Thumb Code   100  chassisdevice.o(.text)
    ChassisControl                           0x0800b011   Thumb Code   156  chassisdevice.o(.text)
    GetChassisIdentify                       0x0800b0ad   Thumb Code    98  chassisdevice.o(.text)
    SetChassisCaps                           0x0800b10f   Thumb Code    98  chassisdevice.o(.text)
    SetPowerRestorePolicy                    0x0800b171   Thumb Code    98  chassisdevice.o(.text)
    GetSysRestartCause                       0x0800b1d3   Thumb Code   100  chassisdevice.o(.text)
    GetPOHCounter                            0x0800b237   Thumb Code    98  chassisdevice.o(.text)
    SetSysBOOTOptions                        0x0800b299   Thumb Code    24  chassisdevice.o(.text)
    GetSysBOOTOptions                        0x0800b2b1   Thumb Code    98  chassisdevice.o(.text)
    SetFPButtonEnables                       0x0800b313   Thumb Code   426  chassisdevice.o(.text)
    SetPowerCycleInterval                    0x0800b4bd   Thumb Code    22  chassisdevice.o(.text)
    extract_sdr_id                           0x0800b7ad   Thumb Code   164  sensor_helpers.o(.text)
    ipmi_convert_reading                     0x0800b851   Thumb Code   756  sensor_helpers.o(.text)
    get_sdr_sensor_state                     0x0800bb45   Thumb Code   250  sensor_helpers.o(.text)
    GetSensorState                           0x0800bc3f   Thumb Code    10  sensor_helpers.o(.text)
    read_sensor_sdrs                         0x0800bc49   Thumb Code     6  sensor_helpers.o(.text)
    ipmi_conv_reading                        0x0800bc4f   Thumb Code   452  sensor_helpers.o(.text)
    SensorState                              0x0800be13   Thumb Code   382  sensor_helpers.o(.text)
    sdr_convert_sensor_value_to_raw          0x0800bf91   Thumb Code   482  sensor_helpers.o(.text)
    adc_init_channle                         0x0800c1fb   Thumb Code    30  bsp_adc.o(.text)
    adc_get_value                            0x0800c219   Thumb Code    64  bsp_adc.o(.text)
    capture_getHandler                       0x0800c36b   Thumb Code    36  bsp_capture.o(.text)
    capture_getTotalNum                      0x0800c38f   Thumb Code     4  bsp_capture.o(.text)
    capture_init                             0x0800c393   Thumb Code    74  bsp_capture.o(.text)
    TIMER0_UP_TIMER9_IRQHandler              0x0800c3dd   Thumb Code    58  bsp_capture.o(.text)
    TIMER0_Channel_IRQHandler                0x0800c417   Thumb Code   114  bsp_capture.o(.text)
    capture_get_value                        0x0800c489   Thumb Code    34  bsp_capture.o(.text)
    capture_getIsValid                       0x0800c4ab   Thumb Code    22  bsp_capture.o(.text)
    i2c_set_slave_addr                       0x0800c4fd   Thumb Code    60  bsp_i2c.o(.text)
    i2c_channel_init                         0x0800c689   Thumb Code    36  bsp_i2c.o(.text)
    i2c_int                                  0x0800c6ad   Thumb Code    32  bsp_i2c.o(.text)
    I2C0_EV_IRQHandler                       0x0800ca4d   Thumb Code   314  bsp_i2c.o(.text)
    I2C0_ER_IRQHandler                       0x0800cb87   Thumb Code   142  bsp_i2c.o(.text)
    I2C1_EV_IRQHandler                       0x0800cc15   Thumb Code   316  bsp_i2c.o(.text)
    I2C1_ER_IRQHandler                       0x0800cd51   Thumb Code   332  bsp_i2c.o(.text)
    i2c_write                                0x0800ce9d   Thumb Code    82  bsp_i2c.o(.text)
    i2c_dualaddr_set                         0x0800ceef   Thumb Code    34  bsp_i2c.o(.text)
    i2c_dualaddr_get                         0x0800cf11   Thumb Code    14  bsp_i2c.o(.text)
    pwm_timer_gpio_config                    0x0800cf29   Thumb Code    44  bsp_pwm.o(.text)
    pwm_timer_config                         0x0800cf55   Thumb Code   158  bsp_pwm.o(.text)
    UART3_init                               0x0800cff9   Thumb Code    34  bsp_uart3.o(.text)
    UART3_IRQHandler                         0x0800d01b   Thumb Code    24  bsp_uart3.o(.text)
    UART0_init                               0x0800d049   Thumb Code    36  bsp_usart0.o(.text)
    USART0_IRQHandler                        0x0800d06d   Thumb Code   284  bsp_usart0.o(.text)
    UART1_init                               0x0800d205   Thumb Code    34  bsp_usart1.o(.text)
    USART1_IRQHandler                        0x0800d227   Thumb Code    74  bsp_usart1.o(.text)
    GPIO_setPinStatus                        0x0800d2c9   Thumb Code    90  bsp_gpio.o(.text)
    GPIO_bspInit                             0x0800d433   Thumb Code    26  bsp_gpio.o(.text)
    GPIO_getPinStatus                        0x0800d44d   Thumb Code    28  bsp_gpio.o(.text)
    get_board_addr                           0x0800d469   Thumb Code    40  bsp_gpio.o(.text)
    timer_config_init                        0x0800d5e7   Thumb Code    20  bsp_timer.o(.text)
    TIMER2_IRQHandler                        0x0800d5fb   Thumb Code    34  bsp_timer.o(.text)
    UART_sendFinally                         0x0800d629   Thumb Code    66  bsp_uartcomm.o(.text)
    com_getHandler                           0x0800d66b   Thumb Code    48  bsp_uartcomm.o(.text)
    UART_sendByte                            0x0800d69b   Thumb Code    60  bsp_uartcomm.o(.text)
    fputc                                    0x0800d6d7   Thumb Code    16  bsp_uartcomm.o(.text)
    com_registHandler                        0x0800d6e7   Thumb Code    60  bsp_uartcomm.o(.text)
    UART_getByte                             0x0800d723   Thumb Code    40  bsp_uartcomm.o(.text)
    UART_getData                             0x0800d74b   Thumb Code    52  bsp_uartcomm.o(.text)
    UART_sendData                            0x0800d77f   Thumb Code    62  bsp_uartcomm.o(.text)
    UART_sendDataBlock                       0x0800d7bd   Thumb Code    48  bsp_uartcomm.o(.text)
    COM_init                                 0x0800d7ed   Thumb Code   190  bsp_uartcomm.o(.text)
    UART_init                                0x0800d8ab   Thumb Code    12  bsp_uartcomm.o(.text)
    SystemInit                               0x0800d9cb   Thumb Code   156  system_gd32f30x.o(.text)
    SystemCoreClockUpdate                    0x0800da67   Thumb Code   280  system_gd32f30x.o(.text)
    adc_deinit                               0x0800dbb9   Thumb Code    84  gd32f30x_adc.o(.text)
    adc_enable                               0x0800dc0d   Thumb Code    18  gd32f30x_adc.o(.text)
    adc_disable                              0x0800dc1f   Thumb Code    10  gd32f30x_adc.o(.text)
    adc_calibration_enable                   0x0800dc29   Thumb Code    42  gd32f30x_adc.o(.text)
    adc_dma_mode_enable                      0x0800dc53   Thumb Code    10  gd32f30x_adc.o(.text)
    adc_dma_mode_disable                     0x0800dc5d   Thumb Code    10  gd32f30x_adc.o(.text)
    adc_tempsensor_vrefint_enable            0x0800dc67   Thumb Code    14  gd32f30x_adc.o(.text)
    adc_tempsensor_vrefint_disable           0x0800dc75   Thumb Code    14  gd32f30x_adc.o(.text)
    adc_resolution_config                    0x0800dc83   Thumb Code    20  gd32f30x_adc.o(.text)
    adc_discontinuous_mode_config            0x0800dc97   Thumb Code    76  gd32f30x_adc.o(.text)
    adc_mode_config                          0x0800dce3   Thumb Code    26  gd32f30x_adc.o(.text)
    adc_special_function_config              0x0800dcfd   Thumb Code    90  gd32f30x_adc.o(.text)
    adc_data_alignment_config                0x0800dd57   Thumb Code    22  gd32f30x_adc.o(.text)
    adc_channel_length_config                0x0800dd6d   Thumb Code    70  gd32f30x_adc.o(.text)
    adc_regular_channel_config               0x0800ddb3   Thumb Code   172  gd32f30x_adc.o(.text)
    adc_inserted_channel_config              0x0800de5f   Thumb Code   116  gd32f30x_adc.o(.text)
    adc_inserted_channel_offset_config       0x0800ded3   Thumb Code    36  gd32f30x_adc.o(.text)
    adc_external_trigger_config              0x0800def7   Thumb Code    62  gd32f30x_adc.o(.text)
    adc_external_trigger_source_config       0x0800df35   Thumb Code    48  gd32f30x_adc.o(.text)
    adc_software_trigger_enable              0x0800df65   Thumb Code    30  gd32f30x_adc.o(.text)
    adc_regular_data_read                    0x0800df83   Thumb Code     8  gd32f30x_adc.o(.text)
    adc_inserted_data_read                   0x0800df8b   Thumb Code    56  gd32f30x_adc.o(.text)
    adc_sync_mode_convert_value_read         0x0800dfc3   Thumb Code     6  gd32f30x_adc.o(.text)
    adc_flag_get                             0x0800dfc9   Thumb Code    14  gd32f30x_adc.o(.text)
    adc_flag_clear                           0x0800dfd7   Thumb Code     8  gd32f30x_adc.o(.text)
    adc_interrupt_flag_get                   0x0800dfdf   Thumb Code    88  gd32f30x_adc.o(.text)
    adc_interrupt_flag_clear                 0x0800e037   Thumb Code     8  gd32f30x_adc.o(.text)
    adc_interrupt_enable                     0x0800e03f   Thumb Code    44  gd32f30x_adc.o(.text)
    adc_interrupt_disable                    0x0800e06b   Thumb Code    44  gd32f30x_adc.o(.text)
    adc_watchdog_single_channel_enable       0x0800e097   Thumb Code    24  gd32f30x_adc.o(.text)
    adc_watchdog_group_channel_enable        0x0800e0af   Thumb Code    60  gd32f30x_adc.o(.text)
    adc_watchdog_disable                     0x0800e0eb   Thumb Code    10  gd32f30x_adc.o(.text)
    adc_watchdog_threshold_config            0x0800e0f5   Thumb Code    14  gd32f30x_adc.o(.text)
    adc_oversample_mode_config               0x0800e103   Thumb Code    58  gd32f30x_adc.o(.text)
    adc_oversample_mode_enable               0x0800e13d   Thumb Code    14  gd32f30x_adc.o(.text)
    adc_oversample_mode_disable              0x0800e14b   Thumb Code    14  gd32f30x_adc.o(.text)
    gpio_deinit                              0x0800e165   Thumb Code   186  gd32f30x_gpio.o(.text)
    gpio_afio_deinit                         0x0800e21f   Thumb Code    20  gd32f30x_gpio.o(.text)
    gpio_init                                0x0800e233   Thumb Code   188  gd32f30x_gpio.o(.text)
    gpio_bit_set                             0x0800e2ef   Thumb Code     4  gd32f30x_gpio.o(.text)
    gpio_bit_reset                           0x0800e2f3   Thumb Code     4  gd32f30x_gpio.o(.text)
    gpio_bit_write                           0x0800e2f7   Thumb Code    10  gd32f30x_gpio.o(.text)
    gpio_port_write                          0x0800e301   Thumb Code     4  gd32f30x_gpio.o(.text)
    gpio_input_bit_get                       0x0800e305   Thumb Code    16  gd32f30x_gpio.o(.text)
    gpio_input_port_get                      0x0800e315   Thumb Code     8  gd32f30x_gpio.o(.text)
    gpio_output_bit_get                      0x0800e31d   Thumb Code    16  gd32f30x_gpio.o(.text)
    gpio_output_port_get                     0x0800e32d   Thumb Code     8  gd32f30x_gpio.o(.text)
    gpio_pin_remap_config                    0x0800e335   Thumb Code   138  gd32f30x_gpio.o(.text)
    gpio_exti_source_select                  0x0800e3bf   Thumb Code   146  gd32f30x_gpio.o(.text)
    gpio_event_output_config                 0x0800e451   Thumb Code    22  gd32f30x_gpio.o(.text)
    gpio_event_output_enable                 0x0800e467   Thumb Code    14  gd32f30x_gpio.o(.text)
    gpio_event_output_disable                0x0800e475   Thumb Code    14  gd32f30x_gpio.o(.text)
    gpio_pin_lock                            0x0800e483   Thumb Code    18  gd32f30x_gpio.o(.text)
    gpio_compensation_config                 0x0800e495   Thumb Code    18  gd32f30x_gpio.o(.text)
    gpio_compensation_flag_get               0x0800e4a7   Thumb Code    18  gd32f30x_gpio.o(.text)
    fwdgt_write_enable                       0x0800e4c5   Thumb Code    10  gd32f30x_fwdgt.o(.text)
    fwdgt_write_disable                      0x0800e4cf   Thumb Code     8  gd32f30x_fwdgt.o(.text)
    fwdgt_enable                             0x0800e4d7   Thumb Code    10  gd32f30x_fwdgt.o(.text)
    fwdgt_prescaler_value_config             0x0800e4e1   Thumb Code    50  gd32f30x_fwdgt.o(.text)
    fwdgt_reload_value_config                0x0800e513   Thumb Code    54  gd32f30x_fwdgt.o(.text)
    fwdgt_counter_reload                     0x0800e549   Thumb Code    10  gd32f30x_fwdgt.o(.text)
    fwdgt_config                             0x0800e553   Thumb Code    94  gd32f30x_fwdgt.o(.text)
    fwdgt_flag_get                           0x0800e5b1   Thumb Code    18  gd32f30x_fwdgt.o(.text)
    i2c_deinit                               0x0800e5cd   Thumb Code    60  gd32f30x_i2c.o(.text)
    i2c_clock_config                         0x0800e609   Thumb Code   306  gd32f30x_i2c.o(.text)
    i2c_mode_addr_config                     0x0800e73b   Thumb Code    28  gd32f30x_i2c.o(.text)
    i2c_smbus_type_config                    0x0800e757   Thumb Code    24  gd32f30x_i2c.o(.text)
    i2c_ack_config                           0x0800e76f   Thumb Code    16  gd32f30x_i2c.o(.text)
    i2c_ackpos_config                        0x0800e77f   Thumb Code    16  gd32f30x_i2c.o(.text)
    i2c_master_addressing                    0x0800e78f   Thumb Code    20  gd32f30x_i2c.o(.text)
    i2c_dualaddr_enable                      0x0800e7a3   Thumb Code    12  gd32f30x_i2c.o(.text)
    i2c_dualaddr_disable                     0x0800e7af   Thumb Code    10  gd32f30x_i2c.o(.text)
    i2c_enable                               0x0800e7b9   Thumb Code    10  gd32f30x_i2c.o(.text)
    i2c_disable                              0x0800e7c3   Thumb Code    10  gd32f30x_i2c.o(.text)
    i2c_start_on_bus                         0x0800e7cd   Thumb Code    10  gd32f30x_i2c.o(.text)
    i2c_stop_on_bus                          0x0800e7d7   Thumb Code    10  gd32f30x_i2c.o(.text)
    i2c_data_transmit                        0x0800e7e1   Thumb Code     6  gd32f30x_i2c.o(.text)
    i2c_data_receive                         0x0800e7e7   Thumb Code     8  gd32f30x_i2c.o(.text)
    i2c_dma_config                           0x0800e7ef   Thumb Code    16  gd32f30x_i2c.o(.text)
    i2c_dma_last_transfer_config             0x0800e7ff   Thumb Code    16  gd32f30x_i2c.o(.text)
    i2c_stretch_scl_low_config               0x0800e80f   Thumb Code    16  gd32f30x_i2c.o(.text)
    i2c_slave_response_to_gcall_config       0x0800e81f   Thumb Code    16  gd32f30x_i2c.o(.text)
    i2c_software_reset_config                0x0800e82f   Thumb Code    16  gd32f30x_i2c.o(.text)
    i2c_pec_config                           0x0800e83f   Thumb Code    16  gd32f30x_i2c.o(.text)
    i2c_pec_transfer_config                  0x0800e84f   Thumb Code    16  gd32f30x_i2c.o(.text)
    i2c_pec_value_get                        0x0800e85f   Thumb Code    10  gd32f30x_i2c.o(.text)
    i2c_smbus_alert_config                   0x0800e869   Thumb Code    16  gd32f30x_i2c.o(.text)
    i2c_smbus_arp_config                     0x0800e879   Thumb Code    16  gd32f30x_i2c.o(.text)
    i2c_flag_get                             0x0800e889   Thumb Code    30  gd32f30x_i2c.o(.text)
    i2c_flag_clear                           0x0800e8a7   Thumb Code    40  gd32f30x_i2c.o(.text)
    i2c_interrupt_enable                     0x0800e8cf   Thumb Code    26  gd32f30x_i2c.o(.text)
    i2c_interrupt_disable                    0x0800e8e9   Thumb Code    26  gd32f30x_i2c.o(.text)
    i2c_interrupt_flag_get                   0x0800e903   Thumb Code    84  gd32f30x_i2c.o(.text)
    i2c_interrupt_flag_clear                 0x0800e957   Thumb Code    38  gd32f30x_i2c.o(.text)
    rcu_flag_get                             0x0800e999   Thumb Code    30  gd32f30x_rcu.o(.text)
    rcu_osci_stab_wait                       0x0800e9b7   Thumb Code   268  gd32f30x_rcu.o(.text)
    rcu_deinit                               0x0800eac3   Thumb Code   106  gd32f30x_rcu.o(.text)
    rcu_periph_clock_enable                  0x0800eb2d   Thumb Code    28  gd32f30x_rcu.o(.text)
    rcu_periph_clock_disable                 0x0800eb49   Thumb Code    28  gd32f30x_rcu.o(.text)
    rcu_periph_clock_sleep_enable            0x0800eb65   Thumb Code    28  gd32f30x_rcu.o(.text)
    rcu_periph_clock_sleep_disable           0x0800eb81   Thumb Code    28  gd32f30x_rcu.o(.text)
    rcu_periph_reset_enable                  0x0800eb9d   Thumb Code    28  gd32f30x_rcu.o(.text)
    rcu_periph_reset_disable                 0x0800ebb9   Thumb Code    28  gd32f30x_rcu.o(.text)
    rcu_bkp_reset_enable                     0x0800ebd5   Thumb Code    14  gd32f30x_rcu.o(.text)
    rcu_bkp_reset_disable                    0x0800ebe3   Thumb Code    14  gd32f30x_rcu.o(.text)
    rcu_system_clock_source_config           0x0800ebf1   Thumb Code    18  gd32f30x_rcu.o(.text)
    rcu_system_clock_source_get              0x0800ec03   Thumb Code    10  gd32f30x_rcu.o(.text)
    rcu_ahb_clock_config                     0x0800ec0d   Thumb Code    18  gd32f30x_rcu.o(.text)
    rcu_apb1_clock_config                    0x0800ec1f   Thumb Code    18  gd32f30x_rcu.o(.text)
    rcu_apb2_clock_config                    0x0800ec31   Thumb Code    18  gd32f30x_rcu.o(.text)
    rcu_ckout0_config                        0x0800ec43   Thumb Code    18  gd32f30x_rcu.o(.text)
    rcu_pll_config                           0x0800ec55   Thumb Code    24  gd32f30x_rcu.o(.text)
    rcu_pllpresel_config                     0x0800ec6d   Thumb Code    18  gd32f30x_rcu.o(.text)
    rcu_predv0_config                        0x0800ec7f   Thumb Code    26  gd32f30x_rcu.o(.text)
    rcu_adc_clock_config                     0x0800ec99   Thumb Code    98  gd32f30x_rcu.o(.text)
    rcu_usb_clock_config                     0x0800ecfb   Thumb Code    18  gd32f30x_rcu.o(.text)
    rcu_rtc_clock_config                     0x0800ed0d   Thumb Code    18  gd32f30x_rcu.o(.text)
    rcu_ck48m_clock_config                   0x0800ed1f   Thumb Code    22  gd32f30x_rcu.o(.text)
    rcu_lxtal_drive_capability_config        0x0800ed35   Thumb Code    18  gd32f30x_rcu.o(.text)
    rcu_osci_on                              0x0800ed47   Thumb Code    28  gd32f30x_rcu.o(.text)
    rcu_osci_off                             0x0800ed63   Thumb Code    54  gd32f30x_rcu.o(.text)
    rcu_osci_bypass_mode_enable              0x0800ed99   Thumb Code    96  gd32f30x_rcu.o(.text)
    rcu_osci_bypass_mode_disable             0x0800edf9   Thumb Code    96  gd32f30x_rcu.o(.text)
    rcu_irc8m_adjust_value_set               0x0800ee59   Thumb Code    22  gd32f30x_rcu.o(.text)
    rcu_hxtal_clock_monitor_enable           0x0800ee6f   Thumb Code    14  gd32f30x_rcu.o(.text)
    rcu_hxtal_clock_monitor_disable          0x0800ee7d   Thumb Code    14  gd32f30x_rcu.o(.text)
    rcu_deepsleep_voltage_set                0x0800ee8b   Thumb Code    10  gd32f30x_rcu.o(.text)
    rcu_clock_freq_get                       0x0800ee95   Thumb Code   310  gd32f30x_rcu.o(.text)
    rcu_all_reset_flag_clear                 0x0800efcb   Thumb Code    14  gd32f30x_rcu.o(.text)
    rcu_interrupt_flag_get                   0x0800efd9   Thumb Code    30  gd32f30x_rcu.o(.text)
    rcu_interrupt_flag_clear                 0x0800eff7   Thumb Code    28  gd32f30x_rcu.o(.text)
    rcu_interrupt_enable                     0x0800f013   Thumb Code    28  gd32f30x_rcu.o(.text)
    rcu_interrupt_disable                    0x0800f02f   Thumb Code    28  gd32f30x_rcu.o(.text)
    timer_deinit                             0x0800f06d   Thumb Code   374  gd32f30x_timer.o(.text)
    timer_struct_para_init                   0x0800f1e3   Thumb Code    22  gd32f30x_timer.o(.text)
    timer_init                               0x0800f1f9   Thumb Code   124  gd32f30x_timer.o(.text)
    timer_enable                             0x0800f275   Thumb Code    10  gd32f30x_timer.o(.text)
    timer_disable                            0x0800f27f   Thumb Code    10  gd32f30x_timer.o(.text)
    timer_auto_reload_shadow_enable          0x0800f289   Thumb Code    10  gd32f30x_timer.o(.text)
    timer_auto_reload_shadow_disable         0x0800f293   Thumb Code    10  gd32f30x_timer.o(.text)
    timer_update_event_enable                0x0800f29d   Thumb Code    10  gd32f30x_timer.o(.text)
    timer_update_event_disable               0x0800f2a7   Thumb Code    10  gd32f30x_timer.o(.text)
    timer_counter_alignment                  0x0800f2b1   Thumb Code    16  gd32f30x_timer.o(.text)
    timer_counter_up_direction               0x0800f2c1   Thumb Code    10  gd32f30x_timer.o(.text)
    timer_counter_down_direction             0x0800f2cb   Thumb Code    10  gd32f30x_timer.o(.text)
    timer_prescaler_config                   0x0800f2d5   Thumb Code    14  gd32f30x_timer.o(.text)
    timer_repetition_value_config            0x0800f2e3   Thumb Code     4  gd32f30x_timer.o(.text)
    timer_autoreload_value_config            0x0800f2e7   Thumb Code     4  gd32f30x_timer.o(.text)
    timer_counter_value_config               0x0800f2eb   Thumb Code     4  gd32f30x_timer.o(.text)
    timer_counter_read                       0x0800f2ef   Thumb Code     8  gd32f30x_timer.o(.text)
    timer_prescaler_read                     0x0800f2f7   Thumb Code    10  gd32f30x_timer.o(.text)
    timer_single_pulse_mode_config           0x0800f301   Thumb Code    26  gd32f30x_timer.o(.text)
    timer_update_source_config               0x0800f31b   Thumb Code    26  gd32f30x_timer.o(.text)
    timer_interrupt_enable                   0x0800f335   Thumb Code     8  gd32f30x_timer.o(.text)
    timer_interrupt_disable                  0x0800f33d   Thumb Code     8  gd32f30x_timer.o(.text)
    timer_interrupt_flag_get                 0x0800f345   Thumb Code    24  gd32f30x_timer.o(.text)
    timer_interrupt_flag_clear               0x0800f35d   Thumb Code     6  gd32f30x_timer.o(.text)
    timer_flag_get                           0x0800f363   Thumb Code    16  gd32f30x_timer.o(.text)
    timer_flag_clear                         0x0800f373   Thumb Code     6  gd32f30x_timer.o(.text)
    timer_dma_enable                         0x0800f379   Thumb Code     8  gd32f30x_timer.o(.text)
    timer_dma_disable                        0x0800f381   Thumb Code     8  gd32f30x_timer.o(.text)
    timer_channel_dma_request_source_select  0x0800f389   Thumb Code    26  gd32f30x_timer.o(.text)
    timer_dma_transfer_config                0x0800f3a3   Thumb Code    24  gd32f30x_timer.o(.text)
    timer_event_software_generate            0x0800f3bb   Thumb Code     8  gd32f30x_timer.o(.text)
    timer_break_struct_para_init             0x0800f3c3   Thumb Code    18  gd32f30x_timer.o(.text)
    timer_break_config                       0x0800f3d5   Thumb Code    30  gd32f30x_timer.o(.text)
    timer_break_enable                       0x0800f3f3   Thumb Code    10  gd32f30x_timer.o(.text)
    timer_break_disable                      0x0800f3fd   Thumb Code    10  gd32f30x_timer.o(.text)
    timer_automatic_output_enable            0x0800f407   Thumb Code    10  gd32f30x_timer.o(.text)
    timer_automatic_output_disable           0x0800f411   Thumb Code    10  gd32f30x_timer.o(.text)
    timer_primary_output_config              0x0800f41b   Thumb Code    24  gd32f30x_timer.o(.text)
    timer_channel_control_shadow_config      0x0800f433   Thumb Code    24  gd32f30x_timer.o(.text)
    timer_channel_control_shadow_update_config 0x0800f44b   Thumb Code    60  gd32f30x_timer.o(.text)
    timer_channel_output_struct_para_init    0x0800f487   Thumb Code    16  gd32f30x_timer.o(.text)
    timer_channel_output_config              0x0800f497   Thumb Code   482  gd32f30x_timer.o(.text)
    timer_channel_output_mode_config         0x0800f679   Thumb Code    90  gd32f30x_timer.o(.text)
    timer_channel_output_pulse_value_config  0x0800f6d3   Thumb Code    38  gd32f30x_timer.o(.text)
    timer_channel_output_shadow_config       0x0800f6f9   Thumb Code    90  gd32f30x_timer.o(.text)
    timer_channel_output_fast_config         0x0800f753   Thumb Code    90  gd32f30x_timer.o(.text)
    timer_channel_output_clear_config        0x0800f7ad   Thumb Code    90  gd32f30x_timer.o(.text)
    timer_channel_output_polarity_config     0x0800f807   Thumb Code    92  gd32f30x_timer.o(.text)
    timer_channel_complementary_output_polarity_config 0x0800f863   Thumb Code    70  gd32f30x_timer.o(.text)
    timer_channel_output_state_config        0x0800f8a9   Thumb Code   100  gd32f30x_timer.o(.text)
    timer_channel_complementary_output_state_config 0x0800f90d   Thumb Code    70  gd32f30x_timer.o(.text)
    timer_channel_input_struct_para_init     0x0800f953   Thumb Code    16  gd32f30x_timer.o(.text)
    timer_channel_input_capture_prescaler_config 0x0800f963   Thumb Code    90  gd32f30x_timer.o(.text)
    timer_input_capture_config               0x0800f9bd   Thumb Code   326  gd32f30x_timer.o(.text)
    timer_channel_capture_value_register_read 0x0800fb03   Thumb Code    42  gd32f30x_timer.o(.text)
    timer_input_pwm_capture_config           0x0800fb2d   Thumb Code   356  gd32f30x_timer.o(.text)
    timer_hall_mode_config                   0x0800fc91   Thumb Code    26  gd32f30x_timer.o(.text)
    timer_input_trigger_source_select        0x0800fcab   Thumb Code    16  gd32f30x_timer.o(.text)
    timer_master_output_trigger_source_select 0x0800fcbb   Thumb Code    16  gd32f30x_timer.o(.text)
    timer_slave_mode_select                  0x0800fccb   Thumb Code    16  gd32f30x_timer.o(.text)
    timer_master_slave_mode_config           0x0800fcdb   Thumb Code    26  gd32f30x_timer.o(.text)
    timer_external_trigger_config            0x0800fcf5   Thumb Code    30  gd32f30x_timer.o(.text)
    timer_quadrature_decoder_mode_config     0x0800fd13   Thumb Code    64  gd32f30x_timer.o(.text)
    timer_internal_clock_config              0x0800fd53   Thumb Code    10  gd32f30x_timer.o(.text)
    timer_internal_trigger_as_external_clock_config 0x0800fd5d   Thumb Code    32  gd32f30x_timer.o(.text)
    timer_external_trigger_as_external_clock_config 0x0800fd7d   Thumb Code   166  gd32f30x_timer.o(.text)
    timer_external_clock_mode0_config        0x0800fe23   Thumb Code    40  gd32f30x_timer.o(.text)
    timer_external_clock_mode1_config        0x0800fe4b   Thumb Code    32  gd32f30x_timer.o(.text)
    timer_external_clock_mode1_disable       0x0800fe6b   Thumb Code    10  gd32f30x_timer.o(.text)
    timer_write_chxval_register_config       0x0800fe75   Thumb Code    34  gd32f30x_timer.o(.text)
    timer_output_value_selection_config      0x0800fe97   Thumb Code    34  gd32f30x_timer.o(.text)
    nvic_priority_group_set                  0x0800feb9   Thumb Code    10  gd32f30x_misc.o(.text)
    nvic_irq_enable                          0x0800fec3   Thumb Code   186  gd32f30x_misc.o(.text)
    nvic_irq_disable                         0x0800ff7d   Thumb Code    18  gd32f30x_misc.o(.text)
    nvic_vector_table_set                    0x0800ff8f   Thumb Code    18  gd32f30x_misc.o(.text)
    system_lowpower_set                      0x0800ffa1   Thumb Code    16  gd32f30x_misc.o(.text)
    system_lowpower_reset                    0x0800ffb1   Thumb Code    16  gd32f30x_misc.o(.text)
    systick_clksource_set                    0x0800ffc1   Thumb Code    40  gd32f30x_misc.o(.text)
    usart_deinit                             0x0800fffd   Thumb Code   136  gd32f30x_usart.o(.text)
    usart_baudrate_set                       0x08010085   Thumb Code   136  gd32f30x_usart.o(.text)
    usart_parity_config                      0x0801010d   Thumb Code    16  gd32f30x_usart.o(.text)
    usart_word_length_set                    0x0801011d   Thumb Code    16  gd32f30x_usart.o(.text)
    usart_stop_bit_set                       0x0801012d   Thumb Code    16  gd32f30x_usart.o(.text)
    usart_enable                             0x0801013d   Thumb Code    10  gd32f30x_usart.o(.text)
    usart_disable                            0x08010147   Thumb Code    10  gd32f30x_usart.o(.text)
    usart_transmit_config                    0x08010151   Thumb Code    16  gd32f30x_usart.o(.text)
    usart_receive_config                     0x08010161   Thumb Code    16  gd32f30x_usart.o(.text)
    usart_data_first_config                  0x08010171   Thumb Code    20  gd32f30x_usart.o(.text)
    usart_invert_config                      0x08010185   Thumb Code   104  gd32f30x_usart.o(.text)
    usart_receiver_timeout_enable            0x080101ed   Thumb Code    14  gd32f30x_usart.o(.text)
    usart_receiver_timeout_disable           0x080101fb   Thumb Code    14  gd32f30x_usart.o(.text)
    usart_receiver_timeout_threshold_config  0x08010209   Thumb Code    20  gd32f30x_usart.o(.text)
    usart_data_transmit                      0x0801021d   Thumb Code     8  gd32f30x_usart.o(.text)
    usart_data_receive                       0x08010225   Thumb Code    10  gd32f30x_usart.o(.text)
    usart_address_config                     0x0801022f   Thumb Code    20  gd32f30x_usart.o(.text)
    usart_mute_mode_enable                   0x08010243   Thumb Code    10  gd32f30x_usart.o(.text)
    usart_mute_mode_disable                  0x0801024d   Thumb Code    10  gd32f30x_usart.o(.text)
    usart_mute_mode_wakeup_config            0x08010257   Thumb Code    16  gd32f30x_usart.o(.text)
    usart_lin_mode_enable                    0x08010267   Thumb Code    10  gd32f30x_usart.o(.text)
    usart_lin_mode_disable                   0x08010271   Thumb Code    10  gd32f30x_usart.o(.text)
    usart_lin_break_detection_length_config  0x0801027b   Thumb Code    20  gd32f30x_usart.o(.text)
    usart_send_break                         0x0801028f   Thumb Code    10  gd32f30x_usart.o(.text)
    usart_halfduplex_enable                  0x08010299   Thumb Code    10  gd32f30x_usart.o(.text)
    usart_halfduplex_disable                 0x080102a3   Thumb Code    10  gd32f30x_usart.o(.text)
    usart_synchronous_clock_enable           0x080102ad   Thumb Code    10  gd32f30x_usart.o(.text)
    usart_synchronous_clock_disable          0x080102b7   Thumb Code    10  gd32f30x_usart.o(.text)
    usart_synchronous_clock_config           0x080102c1   Thumb Code    34  gd32f30x_usart.o(.text)
    usart_guard_time_config                  0x080102e3   Thumb Code    24  gd32f30x_usart.o(.text)
    usart_smartcard_mode_enable              0x080102fb   Thumb Code    10  gd32f30x_usart.o(.text)
    usart_smartcard_mode_disable             0x08010305   Thumb Code    10  gd32f30x_usart.o(.text)
    usart_smartcard_mode_nack_enable         0x0801030f   Thumb Code    10  gd32f30x_usart.o(.text)
    usart_smartcard_mode_nack_disable        0x08010319   Thumb Code    10  gd32f30x_usart.o(.text)
    usart_smartcard_autoretry_config         0x08010323   Thumb Code    26  gd32f30x_usart.o(.text)
    usart_block_length_config                0x0801033d   Thumb Code    28  gd32f30x_usart.o(.text)
    usart_irda_mode_enable                   0x08010359   Thumb Code    10  gd32f30x_usart.o(.text)
    usart_irda_mode_disable                  0x08010363   Thumb Code    10  gd32f30x_usart.o(.text)
    usart_prescaler_config                   0x0801036d   Thumb Code    16  gd32f30x_usart.o(.text)
    usart_irda_lowpower_config               0x0801037d   Thumb Code    20  gd32f30x_usart.o(.text)
    usart_hardware_flow_rts_config           0x08010391   Thumb Code    16  gd32f30x_usart.o(.text)
    usart_hardware_flow_cts_config           0x080103a1   Thumb Code    16  gd32f30x_usart.o(.text)
    usart_dma_receive_config                 0x080103b1   Thumb Code    16  gd32f30x_usart.o(.text)
    usart_dma_transmit_config                0x080103c1   Thumb Code    16  gd32f30x_usart.o(.text)
    usart_flag_get                           0x080103d1   Thumb Code    40  gd32f30x_usart.o(.text)
    usart_flag_clear                         0x080103f9   Thumb Code    26  gd32f30x_usart.o(.text)
    usart_interrupt_enable                   0x08010413   Thumb Code    26  gd32f30x_usart.o(.text)
    usart_interrupt_disable                  0x0801042d   Thumb Code    26  gd32f30x_usart.o(.text)
    usart_interrupt_flag_get                 0x08010447   Thumb Code    56  gd32f30x_usart.o(.text)
    usart_interrupt_flag_clear               0x0801047f   Thumb Code    26  gd32f30x_usart.o(.text)
    dbg_deinit                               0x08010499   Thumb Code     8  gd32f30x_dbg.o(.text)
    dbg_id_get                               0x080104a1   Thumb Code     6  gd32f30x_dbg.o(.text)
    dbg_low_power_enable                     0x080104a7   Thumb Code    12  gd32f30x_dbg.o(.text)
    dbg_low_power_disable                    0x080104b3   Thumb Code    12  gd32f30x_dbg.o(.text)
    dbg_periph_enable                        0x080104bf   Thumb Code    28  gd32f30x_dbg.o(.text)
    dbg_periph_disable                       0x080104db   Thumb Code    28  gd32f30x_dbg.o(.text)
    dbg_trace_pin_enable                     0x080104f7   Thumb Code    14  gd32f30x_dbg.o(.text)
    dbg_trace_pin_disable                    0x08010505   Thumb Code    14  gd32f30x_dbg.o(.text)
    Reset_Handler                            0x08010519   Thumb Code     8  startup_gd32f30x_cl.o(.text)
    ADC0_1_IRQHandler                        0x08010533   Thumb Code     0  startup_gd32f30x_cl.o(.text)
    CAN0_EWMC_IRQHandler                     0x08010533   Thumb Code     0  startup_gd32f30x_cl.o(.text)
    CAN0_RX0_IRQHandler                      0x08010533   Thumb Code     0  startup_gd32f30x_cl.o(.text)
    CAN0_RX1_IRQHandler                      0x08010533   Thumb Code     0  startup_gd32f30x_cl.o(.text)
    CAN0_TX_IRQHandler                       0x08010533   Thumb Code     0  startup_gd32f30x_cl.o(.text)
    CAN1_EWMC_IRQHandler                     0x08010533   Thumb Code     0  startup_gd32f30x_cl.o(.text)
    CAN1_RX0_IRQHandler                      0x08010533   Thumb Code     0  startup_gd32f30x_cl.o(.text)
    CAN1_RX1_IRQHandler                      0x08010533   Thumb Code     0  startup_gd32f30x_cl.o(.text)
    CAN1_TX_IRQHandler                       0x08010533   Thumb Code     0  startup_gd32f30x_cl.o(.text)
    DMA0_Channel0_IRQHandler                 0x08010533   Thumb Code     0  startup_gd32f30x_cl.o(.text)
    DMA0_Channel1_IRQHandler                 0x08010533   Thumb Code     0  startup_gd32f30x_cl.o(.text)
    DMA0_Channel2_IRQHandler                 0x08010533   Thumb Code     0  startup_gd32f30x_cl.o(.text)
    DMA0_Channel3_IRQHandler                 0x08010533   Thumb Code     0  startup_gd32f30x_cl.o(.text)
    DMA0_Channel4_IRQHandler                 0x08010533   Thumb Code     0  startup_gd32f30x_cl.o(.text)
    DMA0_Channel5_IRQHandler                 0x08010533   Thumb Code     0  startup_gd32f30x_cl.o(.text)
    DMA0_Channel6_IRQHandler                 0x08010533   Thumb Code     0  startup_gd32f30x_cl.o(.text)
    DMA1_Channel0_IRQHandler                 0x08010533   Thumb Code     0  startup_gd32f30x_cl.o(.text)
    DMA1_Channel1_IRQHandler                 0x08010533   Thumb Code     0  startup_gd32f30x_cl.o(.text)
    DMA1_Channel2_IRQHandler                 0x08010533   Thumb Code     0  startup_gd32f30x_cl.o(.text)
    DMA1_Channel3_IRQHandler                 0x08010533   Thumb Code     0  startup_gd32f30x_cl.o(.text)
    DMA1_Channel4_IRQHandler                 0x08010533   Thumb Code     0  startup_gd32f30x_cl.o(.text)
    ENET_WKUP_IRQHandler                     0x08010533   Thumb Code     0  startup_gd32f30x_cl.o(.text)
    EXMC_IRQHandler                          0x08010533   Thumb Code     0  startup_gd32f30x_cl.o(.text)
    EXTI0_IRQHandler                         0x08010533   Thumb Code     0  startup_gd32f30x_cl.o(.text)
    EXTI10_15_IRQHandler                     0x08010533   Thumb Code     0  startup_gd32f30x_cl.o(.text)
    EXTI1_IRQHandler                         0x08010533   Thumb Code     0  startup_gd32f30x_cl.o(.text)
    EXTI2_IRQHandler                         0x08010533   Thumb Code     0  startup_gd32f30x_cl.o(.text)
    EXTI3_IRQHandler                         0x08010533   Thumb Code     0  startup_gd32f30x_cl.o(.text)
    EXTI4_IRQHandler                         0x08010533   Thumb Code     0  startup_gd32f30x_cl.o(.text)
    EXTI5_9_IRQHandler                       0x08010533   Thumb Code     0  startup_gd32f30x_cl.o(.text)
    FMC_IRQHandler                           0x08010533   Thumb Code     0  startup_gd32f30x_cl.o(.text)
    LVD_IRQHandler                           0x08010533   Thumb Code     0  startup_gd32f30x_cl.o(.text)
    RCU_CTC_IRQHandler                       0x08010533   Thumb Code     0  startup_gd32f30x_cl.o(.text)
    RTC_Alarm_IRQHandler                     0x08010533   Thumb Code     0  startup_gd32f30x_cl.o(.text)
    RTC_IRQHandler                           0x08010533   Thumb Code     0  startup_gd32f30x_cl.o(.text)
    SPI0_IRQHandler                          0x08010533   Thumb Code     0  startup_gd32f30x_cl.o(.text)
    SPI1_IRQHandler                          0x08010533   Thumb Code     0  startup_gd32f30x_cl.o(.text)
    SPI2_IRQHandler                          0x08010533   Thumb Code     0  startup_gd32f30x_cl.o(.text)
    TAMPER_IRQHandler                        0x08010533   Thumb Code     0  startup_gd32f30x_cl.o(.text)
    TIMER0_BRK_TIMER8_IRQHandler             0x08010533   Thumb Code     0  startup_gd32f30x_cl.o(.text)
    TIMER0_TRG_CMT_TIMER10_IRQHandler        0x08010533   Thumb Code     0  startup_gd32f30x_cl.o(.text)
    TIMER1_IRQHandler                        0x08010533   Thumb Code     0  startup_gd32f30x_cl.o(.text)
    TIMER3_IRQHandler                        0x08010533   Thumb Code     0  startup_gd32f30x_cl.o(.text)
    TIMER4_IRQHandler                        0x08010533   Thumb Code     0  startup_gd32f30x_cl.o(.text)
    TIMER5_IRQHandler                        0x08010533   Thumb Code     0  startup_gd32f30x_cl.o(.text)
    TIMER6_IRQHandler                        0x08010533   Thumb Code     0  startup_gd32f30x_cl.o(.text)
    TIMER7_BRK_TIMER11_IRQHandler            0x08010533   Thumb Code     0  startup_gd32f30x_cl.o(.text)
    TIMER7_Channel_IRQHandler                0x08010533   Thumb Code     0  startup_gd32f30x_cl.o(.text)
    TIMER7_TRG_CMT_TIMER13_IRQHandler        0x08010533   Thumb Code     0  startup_gd32f30x_cl.o(.text)
    TIMER7_UP_TIMER12_IRQHandler             0x08010533   Thumb Code     0  startup_gd32f30x_cl.o(.text)
    UART4_IRQHandler                         0x08010533   Thumb Code     0  startup_gd32f30x_cl.o(.text)
    USART2_IRQHandler                        0x08010533   Thumb Code     0  startup_gd32f30x_cl.o(.text)
    USBFS_IRQHandler                         0x08010533   Thumb Code     0  startup_gd32f30x_cl.o(.text)
    USBFS_WKUP_IRQHandler                    0x08010533   Thumb Code     0  startup_gd32f30x_cl.o(.text)
    WWDGT_IRQHandler                         0x08010533   Thumb Code     0  startup_gd32f30x_cl.o(.text)
    vListInitialise                          0x0801053d   Thumb Code    26  list.o(.text)
    vListInitialiseItem                      0x08010557   Thumb Code     6  list.o(.text)
    vListInsertEnd                           0x0801055d   Thumb Code    24  list.o(.text)
    vListInsert                              0x08010575   Thumb Code    52  list.o(.text)
    uxListRemove                             0x080105a9   Thumb Code    40  list.o(.text)
    xQueueGenericReset                       0x080105d1   Thumb Code   136  queue.o(.text)
    xQueueGenericCreate                      0x08010687   Thumb Code    80  queue.o(.text)
    xQueueGenericSend                        0x08010881   Thumb Code   470  queue.o(.text)
    xQueueCreateMutex                        0x08010a75   Thumb Code    34  queue.o(.text)
    xQueueGiveMutexRecursive                 0x08010a97   Thumb Code    66  queue.o(.text)
    xQueueSemaphoreTake                      0x08010b07   Thumb Code   410  queue.o(.text)
    xQueueTakeMutexRecursive                 0x08010ca1   Thumb Code    72  queue.o(.text)
    xQueueCreateCountingSemaphore            0x08010ce9   Thumb Code    80  queue.o(.text)
    xQueueGenericSendFromISR                 0x08010d39   Thumb Code   250  queue.o(.text)
    xQueueGiveFromISR                        0x08010e33   Thumb Code   228  queue.o(.text)
    xQueueReceive                            0x08010f41   Thumb Code   338  queue.o(.text)
    xQueuePeek                               0x08011093   Thumb Code   344  queue.o(.text)
    xQueueReceiveFromISR                     0x080111eb   Thumb Code   190  queue.o(.text)
    xQueuePeekFromISR                        0x080112a9   Thumb Code   158  queue.o(.text)
    uxQueueMessagesWaiting                   0x08011347   Thumb Code    36  queue.o(.text)
    uxQueueSpacesAvailable                   0x0801136b   Thumb Code    42  queue.o(.text)
    uxQueueMessagesWaitingFromISR            0x08011395   Thumb Code    36  queue.o(.text)
    vQueueUnregisterQueue                    0x080113b9   Thumb Code    44  queue.o(.text)
    vQueueDelete                             0x080113e5   Thumb Code    38  queue.o(.text)
    uxQueueGetQueueNumber                    0x0801140b   Thumb Code     6  queue.o(.text)
    vQueueSetQueueNumber                     0x08011411   Thumb Code     4  queue.o(.text)
    ucQueueGetQueueType                      0x08011415   Thumb Code     8  queue.o(.text)
    xQueueIsQueueEmptyFromISR                0x0801141d   Thumb Code    38  queue.o(.text)
    xQueueIsQueueFullFromISR                 0x08011443   Thumb Code    42  queue.o(.text)
    vQueueAddToRegistry                      0x0801146d   Thumb Code    38  queue.o(.text)
    pcQueueGetName                           0x08011493   Thumb Code    38  queue.o(.text)
    vQueueWaitForMessageRestricted           0x080114b9   Thumb Code    74  queue.o(.text)
    xQueueCreateSet                          0x08011503   Thumb Code    20  queue.o(.text)
    xQueueAddToSet                           0x08011517   Thumb Code    38  queue.o(.text)
    xQueueRemoveFromSet                      0x0801153d   Thumb Code    48  queue.o(.text)
    xQueueSelectFromSet                      0x0801156d   Thumb Code    24  queue.o(.text)
    xQueueSelectFromSetFromISR               0x08011585   Thumb Code    22  queue.o(.text)
    vApplicationStackOverflowHook            0x080115a1   Thumb Code    78  tasks.o(.text)
    xTaskCreate                              0x08011789   Thumb Code    98  tasks.o(.text)
    vTaskDelete                              0x08011827   Thumb Code   192  tasks.o(.text)
    xTaskIncrementTick                       0x080118e7   Thumb Code   470  tasks.o(.text)
    xTaskResumeAll                           0x08011abd   Thumb Code   218  tasks.o(.text)
    vTaskSuspendAll                          0x08011c13   Thumb Code    12  tasks.o(.text)
    vTaskDelayUntil                          0x08011c1f   Thumb Code   182  tasks.o(.text)
    vTaskDelay                               0x08011cd5   Thumb Code    76  tasks.o(.text)
    eTaskGetState                            0x08011d21   Thumb Code   122  tasks.o(.text)
    uxTaskPriorityGet                        0x08011d9b   Thumb Code    30  tasks.o(.text)
    uxTaskPriorityGetFromISR                 0x08011db9   Thumb Code    62  tasks.o(.text)
    vTaskPrioritySet                         0x08011df7   Thumb Code   316  tasks.o(.text)
    vTaskSwitchContext                       0x08011f33   Thumb Code   142  tasks.o(.text)
    vTaskSuspend                             0x08011fc1   Thumb Code   204  tasks.o(.text)
    vTaskResume                              0x080120d9   Thumb Code   122  tasks.o(.text)
    xTaskResumeFromISR                       0x08012153   Thumb Code   152  tasks.o(.text)
    vTaskStartScheduler                      0x08012253   Thumb Code   182  tasks.o(.text)
    vTaskEndScheduler                        0x08012309   Thumb Code    32  tasks.o(.text)
    xTaskGetTickCount                        0x08012329   Thumb Code     6  tasks.o(.text)
    xTaskGetTickCountFromISR                 0x0801232f   Thumb Code    16  tasks.o(.text)
    uxTaskGetNumberOfTasks                   0x0801233f   Thumb Code     6  tasks.o(.text)
    pcTaskGetName                            0x08012345   Thumb Code    40  tasks.o(.text)
    vTaskGetInfo                             0x08012383   Thumb Code   126  tasks.o(.text)
    uxTaskGetSystemState                     0x0801246b   Thumb Code   152  tasks.o(.text)
    vTaskPlaceOnEventList                    0x08012503   Thumb Code    46  tasks.o(.text)
    vTaskPlaceOnUnorderedEventList           0x08012531   Thumb Code    88  tasks.o(.text)
    vTaskPlaceOnEventListRestricted          0x08012589   Thumb Code    54  tasks.o(.text)
    xTaskRemoveFromEventList                 0x080125bf   Thumb Code   122  tasks.o(.text)
    vTaskRemoveFromUnorderedEventList        0x08012639   Thumb Code   184  tasks.o(.text)
    vTaskSetTimeOutState                     0x080126f1   Thumb Code    44  tasks.o(.text)
    vTaskInternalSetTimeOutState             0x0801271d   Thumb Code    14  tasks.o(.text)
    xTaskCheckForTimeOut                     0x0801272b   Thumb Code   120  tasks.o(.text)
    vTaskMissedYield                         0x080127a3   Thumb Code     8  tasks.o(.text)
    uxTaskGetTaskNumber                      0x080127ab   Thumb Code    14  tasks.o(.text)
    vTaskSetTaskNumber                       0x080127b9   Thumb Code     8  tasks.o(.text)
    xTaskGetCurrentTaskHandle                0x080127c1   Thumb Code     6  tasks.o(.text)
    xTaskGetSchedulerState                   0x080127c7   Thumb Code    24  tasks.o(.text)
    xTaskPriorityInherit                     0x080127df   Thumb Code   186  tasks.o(.text)
    xTaskPriorityDisinherit                  0x08012899   Thumb Code   176  tasks.o(.text)
    vTaskPriorityDisinheritAfterTimeout      0x08012949   Thumb Code   218  tasks.o(.text)
    vTaskList                                0x08012a4d   Thumb Code   254  tasks.o(.text)
    uxTaskResetEventItemValue                0x08012b4b   Thumb Code    24  tasks.o(.text)
    pvTaskIncrementMutexHeldCount            0x08012b63   Thumb Code    26  tasks.o(.text)
    ulTaskNotifyTake                         0x08012b7d   Thumb Code   108  tasks.o(.text)
    xTaskNotifyWait                          0x08012be9   Thumb Code   150  tasks.o(.text)
    xTaskGenericNotify                       0x08012c7f   Thumb Code   256  tasks.o(.text)
    xTaskGenericNotifyFromISR                0x08012d7f   Thumb Code   310  tasks.o(.text)
    vTaskNotifyGiveFromISR                   0x08012eb5   Thumb Code   234  tasks.o(.text)
    xTaskNotifyStateClear                    0x08012f9f   Thumb Code    48  tasks.o(.text)
    vTaskPrintThreadStatus                   0x08012fcf   Thumb Code   104  tasks.o(.text)
    xTimerGenericCommand                     0x080130f9   Thumb Code   118  timers.o(.text)
    xTimerCreateTimerTask                    0x0801345f   Thumb Code    56  timers.o(.text)
    xTimerCreate                             0x0801353d   Thumb Code    48  timers.o(.text)
    xTimerGetTimerDaemonTaskHandle           0x0801356d   Thumb Code    38  timers.o(.text)
    xTimerGetPeriod                          0x08013593   Thumb Code    28  timers.o(.text)
    xTimerGetExpiryTime                      0x080135af   Thumb Code    30  timers.o(.text)
    pcTimerGetName                           0x080135cd   Thumb Code    28  timers.o(.text)
    xTimerIsTimerActive                      0x080135e9   Thumb Code    56  timers.o(.text)
    pvTimerGetTimerID                        0x08013621   Thumb Code    38  timers.o(.text)
    vTimerSetTimerID                         0x08013647   Thumb Code    38  timers.o(.text)
    xTimerPendFunctionCallFromISR            0x0801366d   Thumb Code    48  timers.o(.text)
    xTimerPendFunctionCall                   0x0801369d   Thumb Code    70  timers.o(.text)
    uxTimerGetTimerNumber                    0x080136e3   Thumb Code     6  timers.o(.text)
    vTimerSetTimerNumber                     0x080136e9   Thumb Code     4  timers.o(.text)
    pvPortMalloc                             0x080137b7   Thumb Code   262  heap_4.o(.text)
    vPortFree                                0x080138bd   Thumb Code   120  heap_4.o(.text)
    xPortGetFreeHeapSize                     0x08013935   Thumb Code     6  heap_4.o(.text)
    xPortGetMinimumEverFreeHeapSize          0x0801393b   Thumb Code     6  heap_4.o(.text)
    vPortInitialiseBlocks                    0x08013941   Thumb Code     2  heap_4.o(.text)
    pxPortInitialiseStack                    0x080139c5   Thumb Code    30  port.o(.text)
    vPortSetupTimerInterrupt                 0x080139e3   Thumb Code    36  port.o(.text)
    xPortStartScheduler                      0x08013a07   Thumb Code   240  port.o(.text)
    vPortEndScheduler                        0x08013af7   Thumb Code    34  port.o(.text)
    vPortEnterCritical                       0x08013b19   Thumb Code    70  port.o(.text)
    vPortExitCritical                        0x08013b5f   Thumb Code    48  port.o(.text)
    xPortSysTickHandler                      0x08013b8f   Thumb Code    52  port.o(.text)
    vPortValidateInterruptPriority           0x08013bc3   Thumb Code    88  port.o(.text)
    shellWriteString                         0x08013c75   Thumb Code    40  shell.o(.text)
    shellToHex                               0x08013cf1   Thumb Code    56  shell.o(.text)
    shellCheckPermission                     0x08013d75   Thumb Code    54  shell.o(.text)
    shellSeekCommand                         0x08013dab   Thumb Code   122  shell.o(.text)
    shellInit                                0x08013eab   Thumb Code   144  shell.o(.text)
    shellGetCurrent                          0x08013f3b   Thumb Code    48  shell.o(.text)
    shellPrint                               0x08013fc9   Thumb Code    50  shell.o(.text)
    shellToDec                               0x08013ffb   Thumb Code    86  shell.o(.text)
    shellListItem                            0x080140f1   Thumb Code   240  shell.o(.text)
    shellListCommand                         0x080141e1   Thumb Code    90  shell.o(.text)
    shellListVar                             0x0801423b   Thumb Code    84  shell.o(.text)
    shellListUser                            0x0801428f   Thumb Code    84  shell.o(.text)
    shellListKey                             0x080142e3   Thumb Code    84  shell.o(.text)
    shellListAll                             0x08014337   Thumb Code    12  shell.o(.text)
    shellDeleteCommandLine                   0x08014343   Thumb Code    28  shell.o(.text)
    shellClearCommandLine                    0x0801435f   Thumb Code    40  shell.o(.text)
    shellInsertByte                          0x08014387   Thumb Code   226  shell.o(.text)
    shellDeleteByte                          0x08014469   Thumb Code   232  shell.o(.text)
    shellGetVarValue                         0x08014647   Thumb Code    84  shell.o(.text)
    shellSetVarValue                         0x0801473b   Thumb Code   140  shell.o(.text)
    shellSetVar                              0x080147c7   Thumb Code   106  shell.o(.text)
    shellRunCommand                          0x0801489b   Thumb Code   174  shell.o(.text)
    shellNormalInput                         0x08014af1   Thumb Code    28  shell.o(.text)
    shellExec                                0x08014b0d   Thumb Code   110  shell.o(.text)
    shellUp                                  0x08014b7b   Thumb Code    14  shell.o(.text)
    shellDown                                0x08014b89   Thumb Code    16  shell.o(.text)
    shellRight                               0x08014b99   Thumb Code    30  shell.o(.text)
    shellLeft                                0x08014bb7   Thumb Code    26  shell.o(.text)
    shellTab                                 0x08014bd1   Thumb Code   378  shell.o(.text)
    shellBackspace                           0x08014d4b   Thumb Code    14  shell.o(.text)
    shellDelete                              0x08014d59   Thumb Code    16  shell.o(.text)
    shellEnter                               0x08014d69   Thumb Code    20  shell.o(.text)
    shellHelp                                0x08014d7d   Thumb Code   118  shell.o(.text)
    shellHandler                             0x08014df3   Thumb Code   246  shell.o(.text)
    shellTask                                0x08014ee9   Thumb Code    54  shell.o(.text)
    shellUsers                               0x08014f1f   Thumb Code    18  shell.o(.text)
    shellCmds                                0x08014f31   Thumb Code    36  shell.o(.text)
    shellVars                                0x08014f55   Thumb Code    18  shell.o(.text)
    shellKeys                                0x08014f67   Thumb Code    18  shell.o(.text)
    shellClear                               0x08014f79   Thumb Code    22  shell.o(.text)
    shellRun                                 0x08014f8f   Thumb Code    86  shell.o(.text)
    shellExtParsePara                        0x08015213   Thumb Code    86  shell_ext.o(.text)
    shellExtRun                              0x08015269   Thumb Code   202  shell_ext.o(.text)
    userShellWrite                           0x08015339   Thumb Code    14  shell_port.o(.text)
    userShellRead                            0x08015347   Thumb Code    22  shell_port.o(.text)
    userShellInit                            0x0801535d   Thumb Code    30  shell_port.o(.text)
    tolower                                  0x08015389   Thumb Code    12  tolower.o(.text)
    rand                                     0x08015395   Thumb Code    20  rand.o(.text)
    srand                                    0x080153a9   Thumb Code     6  rand.o(.text)
    __aeabi_memcpy                           0x080153b9   Thumb Code    36  memcpya.o(.text)
    __aeabi_memcpy4                          0x080153b9   Thumb Code     0  memcpya.o(.text)
    __aeabi_memcpy8                          0x080153b9   Thumb Code     0  memcpya.o(.text)
    __aeabi_memset                           0x080153dd   Thumb Code    14  memseta.o(.text)
    __aeabi_memset4                          0x080153dd   Thumb Code     0  memseta.o(.text)
    __aeabi_memset8                          0x080153dd   Thumb Code     0  memseta.o(.text)
    __aeabi_memclr                           0x080153eb   Thumb Code     4  memseta.o(.text)
    __aeabi_memclr4                          0x080153eb   Thumb Code     0  memseta.o(.text)
    __aeabi_memclr8                          0x080153eb   Thumb Code     0  memseta.o(.text)
    _memset$wrapper                          0x080153ef   Thumb Code    18  memseta.o(.text)
    strcat                                   0x08015401   Thumb Code    24  strcat.o(.text)
    strlen                                   0x08015419   Thumb Code    14  strlen.o(.text)
    strcmp                                   0x08015427   Thumb Code    28  strcmp.o(.text)
    strcpy                                   0x08015443   Thumb Code    18  strcpy.o(.text)
    strncmp                                  0x08015455   Thumb Code    30  strncmp.o(.text)
    strtok                                   0x08015475   Thumb Code    62  strtok.o(.text)
    __0sscanf                                0x080154b9   Thumb Code    48  __0sscanf.o(.text)
    _scanf_int                               0x080154f1   Thumb Code   332  _scanf_int.o(.text)
    _scanf_real                              0x08015765   Thumb Code     0  scanf_fp.o(.text)
    _scanf_really_real                       0x08015765   Thumb Code   556  scanf_fp.o(.text)
    strtol                                   0x0801599d   Thumb Code   112  strtol.o(.text)
    atoi                                     0x08015a0d   Thumb Code    26  atoi.o(.text)
    __aeabi_dadd                             0x08015a27   Thumb Code   322  dadd.o(.text)
    __aeabi_dsub                             0x08015b69   Thumb Code     6  dadd.o(.text)
    __aeabi_drsub                            0x08015b6f   Thumb Code     6  dadd.o(.text)
    __aeabi_dmul                             0x08015b75   Thumb Code   228  dmul.o(.text)
    __aeabi_ddiv                             0x08015c59   Thumb Code   222  ddiv.o(.text)
    __aeabi_i2d                              0x08015d37   Thumb Code    34  dflti.o(.text)
    __aeabi_d2iz                             0x08015d59   Thumb Code    62  dfixi.o(.text)
    __aeabi_d2uiz                            0x08015d97   Thumb Code    50  dfixui.o(.text)
    __aeabi_f2d                              0x08015dc9   Thumb Code    38  f2d.o(.text)
    __aeabi_cdcmpeq                          0x08015df1   Thumb Code     0  cdcmple.o(.text)
    __aeabi_cdcmple                          0x08015df1   Thumb Code    48  cdcmple.o(.text)
    __aeabi_cdrcmple                         0x08015e21   Thumb Code    48  cdrcmple.o(.text)
    __aeabi_d2f                              0x08015e51   Thumb Code    56  d2f.o(.text)
    __aeabi_uidiv                            0x08015e89   Thumb Code     0  uidiv.o(.text)
    __aeabi_uidivmod                         0x08015e89   Thumb Code    44  uidiv.o(.text)
    __aeabi_uldivmod                         0x08015eb5   Thumb Code    98  uldiv.o(.text)
    __aeabi_llsl                             0x08015f17   Thumb Code    30  llshl.o(.text)
    _ll_shift_l                              0x08015f17   Thumb Code     0  llshl.o(.text)
    __aeabi_llsr                             0x08015f35   Thumb Code    32  llushr.o(.text)
    _ll_ushift_r                             0x08015f35   Thumb Code     0  llushr.o(.text)
    __aeabi_lasr                             0x08015f55   Thumb Code    36  llsshr.o(.text)
    _ll_sshift_r                             0x08015f55   Thumb Code     0  llsshr.o(.text)
    __rt_ctype_table                         0x08015f79   Thumb Code     4  ctype_o.o(.text)
    isspace                                  0x08015f81   Thumb Code    18  isspace_o.o(.text)
    _chval                                   0x08015f93   Thumb Code    28  _chval.o(.text)
    __vfscanf_char                           0x08015fbd   Thumb Code    20  scanf_char.o(.text)
    _sgetc                                   0x08015fd9   Thumb Code    30  _sgetc.o(.text)
    _sbackspace                              0x08015ff7   Thumb Code    34  _sgetc.o(.text)
    _strtoul                                 0x08016019   Thumb Code   158  _strtoul.o(.text)
    __strtod_int                             0x080160ef   Thumb Code    90  strtod.o(.text)
    __I$use$fp                               0x08016155   Thumb Code     0  iusefp.o(.text)
    _float_round                             0x08016155   Thumb Code    18  fepilogue.o(.text)
    _float_epilogue                          0x08016167   Thumb Code    92  fepilogue.o(.text)
    _double_round                            0x080161c3   Thumb Code    30  depilogue.o(.text)
    _double_epilogue                         0x080161e1   Thumb Code   156  depilogue.o(.text)
    __ARM_scalbn                             0x0801627d   Thumb Code    46  dscalb.o(.text)
    scalbn                                   0x0801627d   Thumb Code     0  dscalb.o(.text)
    __aeabi_ul2d                             0x080162ab   Thumb Code    24  dfltul.o(.text)
    __aeabi_d2ulz                            0x080162c3   Thumb Code    48  dfixul.o(.text)
    __scatterload                            0x080162f5   Thumb Code    28  init.o(.text)
    __scatterload_rt2                        0x080162f5   Thumb Code     0  init.o(.text)
    __vfscanf                                0x08016319   Thumb Code   810  _scanf.o(.text)
    _dsqrt                                   0x08016649   Thumb Code   162  dsqrt.o(.text)
    __decompress                             0x080166eb   Thumb Code     0  __dczerorl2.o(.text)
    __decompress1                            0x080166eb   Thumb Code    86  __dczerorl2.o(.text)
    FIFO_Empty                               0x08016741   Thumb Code    14  fifo.o(i.FIFO_Empty)
    __0printf                                0x08016751   Thumb Code    22  printfa.o(i.__0printf)
    __1printf                                0x08016751   Thumb Code     0  printfa.o(i.__0printf)
    __2printf                                0x08016751   Thumb Code     0  printfa.o(i.__0printf)
    __c89printf                              0x08016751   Thumb Code     0  printfa.o(i.__0printf)
    printf                                   0x08016751   Thumb Code     0  printfa.o(i.__0printf)
    __0sprintf                               0x08016771   Thumb Code    34  printfa.o(i.__0sprintf)
    __1sprintf                               0x08016771   Thumb Code     0  printfa.o(i.__0sprintf)
    __2sprintf                               0x08016771   Thumb Code     0  printfa.o(i.__0sprintf)
    __c89sprintf                             0x08016771   Thumb Code     0  printfa.o(i.__0sprintf)
    sprintf                                  0x08016771   Thumb Code     0  printfa.o(i.__0sprintf)
    __0vsnprintf                             0x08016799   Thumb Code    46  printfa.o(i.__0vsnprintf)
    __1vsnprintf                             0x08016799   Thumb Code     0  printfa.o(i.__0vsnprintf)
    __2vsnprintf                             0x08016799   Thumb Code     0  printfa.o(i.__0vsnprintf)
    __c89vsnprintf                           0x08016799   Thumb Code     0  printfa.o(i.__0vsnprintf)
    vsnprintf                                0x08016799   Thumb Code     0  printfa.o(i.__0vsnprintf)
    __ARM_fpclassify                         0x080167cd   Thumb Code    48  fpclassify.o(i.__ARM_fpclassify)
    __aeabi_errno_addr                       0x080167fd   Thumb Code     4  errno.o(i.__aeabi_errno_addr)
    __rt_errno_addr                          0x080167fd   Thumb Code     0  errno.o(i.__aeabi_errno_addr)
    free                                     0x08016805   Thumb Code    88  mallocr.o(i.__free$realloc)
    __hardfp_ceil                            0x08016861   Thumb Code   252  ceil.o(i.__hardfp_ceil)
    __hardfp_fabs                            0x08016979   Thumb Code    20  fabs.o(i.__hardfp_fabs)
    __hardfp_log                             0x08016991   Thumb Code   872  log.o(i.__hardfp_log)
    __hardfp_pow                             0x08016d59   Thumb Code  3072  pow.o(i.__hardfp_pow)
    __hardfp_strtod                          0x080179a9   Thumb Code    30  strtod.o(i.__hardfp_strtod)
    __kernel_poly                            0x080179d1   Thumb Code   248  poly.o(i.__kernel_poly)
    malloc                                   0x08017ac9   Thumb Code    64  mallocr.o(i.__malloc$realloc)
    __mathlib_dbl_divzero                    0x08017b19   Thumb Code    28  dunder.o(i.__mathlib_dbl_divzero)
    __mathlib_dbl_infnan                     0x08017b49   Thumb Code    20  dunder.o(i.__mathlib_dbl_infnan)
    __mathlib_dbl_infnan2                    0x08017b5d   Thumb Code    20  dunder.o(i.__mathlib_dbl_infnan2)
    __mathlib_dbl_invalid                    0x08017b71   Thumb Code    24  dunder.o(i.__mathlib_dbl_invalid)
    __mathlib_dbl_overflow                   0x08017b91   Thumb Code    24  dunder.o(i.__mathlib_dbl_overflow)
    __mathlib_dbl_underflow                  0x08017bb1   Thumb Code    24  dunder.o(i.__mathlib_dbl_underflow)
    __scatterload_copy                       0x08017bd1   Thumb Code    14  handlers.o(i.__scatterload_copy)
    __scatterload_null                       0x08017bdf   Thumb Code     2  handlers.o(i.__scatterload_null)
    __scatterload_zeroinit                   0x08017be1   Thumb Code    14  handlers.o(i.__scatterload_zeroinit)
    __set_errno                              0x08017bf1   Thumb Code     6  errno.o(i.__set_errno)
    _is_digit                                0x08017d81   Thumb Code    14  scanf_fp.o(i._is_digit)
    fabs                                     0x080184b7   Thumb Code    24  fabs.o(i.fabs)
    realloc                                  0x08018521   Thumb Code   102  mallocr.o(i.realloc)
    sqrt                                     0x0801858d   Thumb Code   110  sqrt.o(i.sqrt)
    g_gpioConfigHandler_main                 0x080186ac   Data           8  dev_main.o(.constdata)
    g_devHandler_main                        0x0801871c   Data          28  dev_main.o(.constdata)
    g_gpioConfigHandler_net                  0x0801874c   Data           8  dev_net.o(.constdata)
    g_devHandler_net                         0x08018774   Data          28  dev_net.o(.constdata)
    g_gpioConfigHandler_power                0x080187a4   Data           8  dev_power.o(.constdata)
    g_devHandler_power                       0x080187cc   Data          28  dev_power.o(.constdata)
    g_gpioConfigHandler_storage0             0x080187fc   Data           8  dev_storage0.o(.constdata)
    g_devHandler_storage0                    0x08018824   Data          28  dev_storage0.o(.constdata)
    g_gpioConfigHandler_switch               0x08018854   Data           8  dev_switch.o(.constdata)
    g_devHandler_switch                      0x0801887c   Data          28  dev_switch.o(.constdata)
    shellCmdi2cTest                          0x08018900   Data           8  tools.o(.constdata)
    shellDesci2cTest                         0x08018908   Data           9  tools.o(.constdata)
    shellCmdreboot                           0x08018911   Data           7  tools.o(.constdata)
    shellDescreboot                          0x08018918   Data          15  tools.o(.constdata)
    shellCmdversion                          0x08018927   Data           8  tools.o(.constdata)
    shellDescversion                         0x0801892f   Data          21  tools.o(.constdata)
    shellCmdsensor                           0x08018944   Data           7  tools.o(.constdata)
    shellDescsensor                          0x0801894b   Data          17  tools.o(.constdata)
    shellCmdexit                             0x0801895c   Data           5  tools.o(.constdata)
    shellDescexit                            0x08018961   Data          11  tools.o(.constdata)
    shellCmdlog                              0x0801896c   Data           4  log.o(.constdata)
    shellDesclog                             0x08018970   Data          10  log.o(.constdata)
    m_FlashModeFilterTbl                     0x080189f4   Data          10  msghndlr.o(.constdata)
    g_App_CmdHndlr                           0x08018a00   Data         560  app.o(.constdata)
    g_Chassis_CmdHndlr                       0x08018c30   Data          48  chassis.o(.constdata)
    g_Oem_CmdHndlr                           0x08018c60   Data          96  oem.o(.constdata)
    g_SensorEvent_CmdHndlr                   0x08018cc0   Data         272  sensorevent.o(.constdata)
    g_Storage_CmdHndlr                       0x08018e38   Data         224  storage.o(.constdata)
    SDRSize                                  0x08018f18   Data          20  sdr.o(.constdata)
    g_Bridge_CmdHndlr                        0x08018f30   Data          16  bridge.o(.constdata)
    shellCmdDefaultUser                      0x08019038   Data           6  shell.o(.constdata)
    shellPasswordDefaultUser                 0x0801903e   Data           5  shell.o(.constdata)
    shellDesDefaultUser                      0x08019043   Data          13  shell.o(.constdata)
    shellCmdsetVar                           0x08019050   Data           7  shell.o(.constdata)
    shellDescsetVar                          0x08019057   Data           8  shell.o(.constdata)
    shellDesc0x1B5B4100                      0x0801905f   Data           3  shell.o(.constdata)
    shellDesc0x1B5B4200                      0x08019062   Data           5  shell.o(.constdata)
    shellDesc0x1B5B4300                      0x08019067   Data           6  shell.o(.constdata)
    shellDesc0x1B5B4400                      0x0801906d   Data           5  shell.o(.constdata)
    shellDesc0x09000000                      0x08019072   Data           4  shell.o(.constdata)
    shellDesc0x08000000                      0x08019076   Data          10  shell.o(.constdata)
    shellDesc0x7F000000                      0x08019080   Data          10  shell.o(.constdata)
    shellDesc0x1B5B337E                      0x0801908a   Data           7  shell.o(.constdata)
    shellDesc0x0D000000                      0x08019091   Data           6  shell.o(.constdata)
    shellDesc0x0D0A0000                      0x08019097   Data           6  shell.o(.constdata)
    shellCmdhelp                             0x0801909d   Data           5  shell.o(.constdata)
    shellDeschelp                            0x080190a2   Data          30  shell.o(.constdata)
    shellCmdusers                            0x080190c0   Data           6  shell.o(.constdata)
    shellDescusers                           0x080190c6   Data          14  shell.o(.constdata)
    shellCmdcmds                             0x080190d4   Data           5  shell.o(.constdata)
    shellDesccmds                            0x080190d9   Data          13  shell.o(.constdata)
    shellCmdvars                             0x080190e6   Data           5  shell.o(.constdata)
    shellDescvars                            0x080190eb   Data          13  shell.o(.constdata)
    shellCmdkeys                             0x080190f8   Data           5  shell.o(.constdata)
    shellDesckeys                            0x080190fd   Data          13  shell.o(.constdata)
    shellCmdclear                            0x0801910a   Data           6  shell.o(.constdata)
    shellDescclear                           0x08019110   Data          14  shell.o(.constdata)
    __mathlib_zero                           0x080191e0   Data           8  qnan.o(.constdata)
    __ctype_table                            0x080191e8   Data         129  ctype_o.o(.constdata)
    Region$$Table$$Base                      0x0801974c   Number         0  anon$$obj.o(Region$$Table)
    Region$$Table$$Limit                     0x0801976c   Number         0  anon$$obj.o(Region$$Table)
    shellCommand$$Base                       0x0801976c   Number         0  tools.o(shellCommand)
    shellCommandi2cTest                      0x0801976c   Data          16  tools.o(shellCommand)
    shellCommandreboot                       0x0801977c   Data          16  tools.o(shellCommand)
    shellCommandversion                      0x0801978c   Data          16  tools.o(shellCommand)
    shellCommandsensor                       0x0801979c   Data          16  tools.o(shellCommand)
    shellCommandexit                         0x080197ac   Data          16  tools.o(shellCommand)
    shellCommandlog                          0x080197bc   Data          16  log.o(shellCommand)
    shellUserDefault                         0x080197cc   Data          16  shell.o(shellCommand)
    shellCommandsetVar                       0x080197dc   Data          16  shell.o(shellCommand)
    shellKey0x1B5B4100                       0x080197ec   Data          16  shell.o(shellCommand)
    shellKey0x1B5B4200                       0x080197fc   Data          16  shell.o(shellCommand)
    shellKey0x1B5B4300                       0x0801980c   Data          16  shell.o(shellCommand)
    shellKey0x1B5B4400                       0x0801981c   Data          16  shell.o(shellCommand)
    shellKey0x09000000                       0x0801982c   Data          16  shell.o(shellCommand)
    shellKey0x08000000                       0x0801983c   Data          16  shell.o(shellCommand)
    shellKey0x7F000000                       0x0801984c   Data          16  shell.o(shellCommand)
    shellKey0x1B5B337E                       0x0801985c   Data          16  shell.o(shellCommand)
    shellKey0x0D000000                       0x0801986c   Data          16  shell.o(shellCommand)
    shellKey0x0D0A0000                       0x0801987c   Data          16  shell.o(shellCommand)
    shellCommandhelp                         0x0801988c   Data          16  shell.o(shellCommand)
    shellCommandusers                        0x0801989c   Data          16  shell.o(shellCommand)
    shellCommandcmds                         0x080198ac   Data          16  shell.o(shellCommand)
    shellCommandvars                         0x080198bc   Data          16  shell.o(shellCommand)
    shellCommandkeys                         0x080198cc   Data          16  shell.o(shellCommand)
    shellCommandclear                        0x080198dc   Data          16  shell.o(shellCommand)
    shellCommand$$Limit                      0x080198ec   Number         0  shell.o(shellCommand)
    ComTask_Handler                          0x20000000   Data           4  main.o(.data)
    g_debugLevel                             0x20000004   Data           4  main.o(.data)
    g_localtime                              0x20000008   Data           4  main.o(.data)
    g_utc_time_bmc_firmware_build            0x20000010   Data           8  main.o(.data)
    g_bmc_firmware_version                   0x20000018   Data           2  main.o(.data)
    projectInfo                              0x2000001c   Data           4  main.o(.data)
    g_chassisCtrl_Queue                      0x20000020   Data           4  main.o(.data)
    GW_ADDR0                                 0x20000075   Data           1  tools.o(.data)
    GW_ADDR1                                 0x20000076   Data           1  tools.o(.data)
    GW_ADDR2                                 0x20000077   Data           1  tools.o(.data)
    GW_ADDR3                                 0x20000078   Data           1  tools.o(.data)
    IP_ADDR0                                 0x20000079   Data           1  tools.o(.data)
    IP_ADDR1                                 0x2000007a   Data           1  tools.o(.data)
    IP_ADDR2                                 0x2000007b   Data           1  tools.o(.data)
    IP_ADDR3                                 0x2000007c   Data           1  tools.o(.data)
    ResponseDatMsg_Queue                     0x200000fc   Data           4  msghndlr.o(.data)
    RecvDatMsg_Queue                         0x20000100   Data           4  msghndlr.o(.data)
    RecvForwardI2CDatMsg_Queue               0x20000104   Data           4  msghndlr.o(.data)
    g_sensor_sdr                             0x20000108   Data         576  sdr.o(.data)
    g_time_run                               0x20000418   Data           4  bsp_timer.o(.data)
    SystemCoreClock                          0x2000041c   Data           4  system_gd32f30x.o(.data)
    pxCurrentTCB                             0x20000420   Data           4  tasks.o(.data)
    __stdout                                 0x200004f0   Data           4  stdout.o(.data)
    __microlib_freelist                      0x200004f4   Data           4  mvars.o(.data)
    __microlib_freelist_initialised          0x200004f8   Data           4  mvars.o(.data)
    g_BMCInfo                                0x20000614   Data        4528  msghndlr.o(.bss)
    g_fullSensorRec_Tmp                      0x200017c4   Data          64  sdr.o(.bss)
    g_Cap                                    0x20001804   Data          48  bsp_capture.o(.bss)
    xQueueRegistry                           0x20001ba8   Data         120  queue.o(.bss)
    shell                                    0x2000ab4c   Data         108  shell_port.o(.bss)
    shellBuffer                              0x2000abb8   Data         200  shell_port.o(.bss)
    __heap_base                              0x2000ac80   Data           0  startup_gd32f30x_cl.o(HEAP)
    __heap_limit                             0x2000b080   Data           0  startup_gd32f30x_cl.o(HEAP)
    __initial_sp                             0x2000b480   Data           0  startup_gd32f30x_cl.o(STACK)



==============================================================================

Memory Map of the image

  Image Entry point : 0x08000151

  Load Region LR_IROM1 (Base: 0x08000000, Size: 0x00019dec, Max: 0x00100000, ABSOLUTE, COMPRESSED[0x00019ae0])

    Execution Region ER_IROM1 (Exec base: 0x08000000, Load base: 0x08000000, Size: 0x000198ec, Max: 0x00100000, ABSOLUTE)

    Exec Addr    Load Addr    Size         Type   Attr      Idx    E Section Name        Object

    0x08000000   0x08000000   0x00000150   Data   RO         2541    RESET               startup_gd32f30x_cl.o
    0x08000150   0x08000150   0x00000000   Code   RO         2930  * .ARM.Collect$$$$00000000  mc_w.l(entry.o)
    0x08000150   0x08000150   0x00000004   Code   RO         3312    .ARM.Collect$$$$00000001  mc_w.l(entry2.o)
    0x08000154   0x08000154   0x00000004   Code   RO         3315    .ARM.Collect$$$$00000004  mc_w.l(entry5.o)
    0x08000158   0x08000158   0x00000000   Code   RO         3317    .ARM.Collect$$$$00000008  mc_w.l(entry7b.o)
    0x08000158   0x08000158   0x00000000   Code   RO         3319    .ARM.Collect$$$$0000000A  mc_w.l(entry8b.o)
    0x08000158   0x08000158   0x00000008   Code   RO         3320    .ARM.Collect$$$$0000000B  mc_w.l(entry9a.o)
    0x08000160   0x08000160   0x00000004   Code   RO         3327    .ARM.Collect$$$$0000000E  mc_w.l(entry12b.o)
    0x08000164   0x08000164   0x00000000   Code   RO         3322    .ARM.Collect$$$$0000000F  mc_w.l(entry10a.o)
    0x08000164   0x08000164   0x00000000   Code   RO         3324    .ARM.Collect$$$$00000011  mc_w.l(entry11a.o)
    0x08000164   0x08000164   0x00000004   Code   RO         3313    .ARM.Collect$$$$00002712  mc_w.l(entry2.o)
    0x08000168   0x08000168   0x00000096   Code   RO         2756    .emb_text           port.o
    0x080001fe   0x080001fe   0x00000026   Code   RO            3    .text               gd32f30x_it.o
    0x08000224   0x08000224   0x00000584   Code   RO          183    .text               main.o
    0x080007a8   0x080007a8   0x00000080   Code   RO          396    .text               systick.o
    0x08000828   0x08000828   0x00000002   Code   RO          444    .text               gd32f30x_platform.o
    0x0800082a   0x0800082a   0x00000002   PAD
    0x0800082c   0x0800082c   0x00000ccc   Code   RO          468    .text               api_subdevices.o
    0x080014f8   0x080014f8   0x000000c0   Code   RO          703    .text               dev_main.o
    0x080015b8   0x080015b8   0x00000380   Code   RO          809    .text               api_adc.o
    0x08001938   0x08001938   0x00000330   Code   RO          838    .text               api_fan.o
    0x08001c68   0x08001c68   0x00000044   Code   RO          909    .text               api_cpu.o
    0x08001cac   0x08001cac   0x000003b8   Code   RO          934    .text               api_utc.o
    0x08002064   0x08002064   0x00000cd8   Code   RO          956    .text               tools.o
    0x08002d3c   0x08002d3c   0x00000190   Code   RO         1040    .text               fifo.o
    0x08002ecc   0x08002ecc   0x00000200   Code   RO         1117    .text               api_sensor.o
    0x080030cc   0x080030cc   0x0000237c   Code   RO         1156    .text               cjson.o
    0x08005448   0x08005448   0x00000348   Code   RO         1198    .text               log.o
    0x08005790   0x08005790   0x00000074   Code   RO         1221    .text               ipmi_common.o
    0x08005804   0x08005804   0x00000474   Code   RO         1309    .text               serialifc.o
    0x08005c78   0x08005c78   0x0000007e   Code   RO         1347    .text               serial.o
    0x08005cf6   0x08005cf6   0x00000002   PAD
    0x08005cf8   0x08005cf8   0x00000384   Code   RO         1422    .text               chassisctrl.o
    0x0800607c   0x0800607c   0x000008f4   Code   RO         1452    .text               msghndlr.o
    0x08006970   0x08006970   0x00000572   Code   RO         1526    .text               appdevice.o
    0x08006ee2   0x08006ee2   0x00000002   PAD
    0x08006ee4   0x08006ee4   0x000001a4   Code   RO         1579    .text               oem.o
    0x08007088   0x08007088   0x000027e4   Code   RO         1638    .text               sensor.o
    0x0800986c   0x0800986c   0x0000147c   Code   RO         1702    .text               sdr.o
    0x0800ace8   0x0800ace8   0x00000268   Code   RO         1737    .text               ipmdevice.o
    0x0800af50   0x0800af50   0x000005a0   Code   RO         1800    .text               chassisdevice.o
    0x0800b4f0   0x0800b4f0   0x00000c94   Code   RO         1824    .text               sensor_helpers.o
    0x0800c184   0x0800c184   0x000000d4   Code   RO         1866    .text               bsp_adc.o
    0x0800c258   0x0800c258   0x00000280   Code   RO         1886    .text               bsp_capture.o
    0x0800c4d8   0x0800c4d8   0x00000a50   Code   RO         1913    .text               bsp_i2c.o
    0x0800cf28   0x0800cf28   0x000000d0   Code   RO         1986    .text               bsp_pwm.o
    0x0800cff8   0x0800cff8   0x00000050   Code   RO         2009    .text               bsp_uart3.o
    0x0800d048   0x0800d048   0x000001bc   Code   RO         2036    .text               bsp_usart0.o
    0x0800d204   0x0800d204   0x00000088   Code   RO         2077    .text               bsp_usart1.o
    0x0800d28c   0x0800d28c   0x000002ac   Code   RO         2101    .text               bsp_gpio.o
    0x0800d538   0x0800d538   0x000000f0   Code   RO         2147    .text               bsp_timer.o
    0x0800d628   0x0800d628   0x00000298   Code   RO         2170    .text               bsp_uartcomm.o
    0x0800d8c0   0x0800d8c0   0x000002f8   Code   RO         2192    .text               system_gd32f30x.o
    0x0800dbb8   0x0800dbb8   0x000005ac   Code   RO         2218    .text               gd32f30x_adc.o
    0x0800e164   0x0800e164   0x00000360   Code   RO         2301    .text               gd32f30x_gpio.o
    0x0800e4c4   0x0800e4c4   0x00000108   Code   RO         2321    .text               gd32f30x_fwdgt.o
    0x0800e5cc   0x0800e5cc   0x000003cc   Code   RO         2361    .text               gd32f30x_i2c.o
    0x0800e998   0x0800e998   0x000006d4   Code   RO         2401    .text               gd32f30x_rcu.o
    0x0800f06c   0x0800f06c   0x00000e4c   Code   RO         2441    .text               gd32f30x_timer.o
    0x0800feb8   0x0800feb8   0x00000144   Code   RO         2461    .text               gd32f30x_misc.o
    0x0800fffc   0x0800fffc   0x0000049c   Code   RO         2481    .text               gd32f30x_usart.o
    0x08010498   0x08010498   0x00000080   Code   RO         2521    .text               gd32f30x_dbg.o
    0x08010518   0x08010518   0x00000024   Code   RO         2542    .text               startup_gd32f30x_cl.o
    0x0801053c   0x0801053c   0x00000094   Code   RO         2616    .text               list.o
    0x080105d0   0x080105d0   0x00000fd0   Code   RO         2639    .text               queue.o
    0x080115a0   0x080115a0   0x00001b08   Code   RO         2668    .text               tasks.o
    0x080130a8   0x080130a8   0x0000064c   Code   RO         2707    .text               timers.o
    0x080136f4   0x080136f4   0x000002a0   Code   RO         2733    .text               heap_4.o
    0x08013994   0x08013994   0x000002e0   Code   RO         2757    .text               port.o
    0x08013c74   0x08013c74   0x00001374   Code   RO         2794    .text               shell.o
    0x08014fe8   0x08014fe8   0x00000350   Code   RO         2849    .text               shell_ext.o
    0x08015338   0x08015338   0x00000050   Code   RO         2863    .text               shell_port.o
    0x08015388   0x08015388   0x0000000c   Code   RO         2933    .text               mc_w.l(tolower.o)
    0x08015394   0x08015394   0x00000024   Code   RO         2935    .text               mc_w.l(rand.o)
    0x080153b8   0x080153b8   0x00000024   Code   RO         2938    .text               mc_w.l(memcpya.o)
    0x080153dc   0x080153dc   0x00000024   Code   RO         2940    .text               mc_w.l(memseta.o)
    0x08015400   0x08015400   0x00000018   Code   RO         2942    .text               mc_w.l(strcat.o)
    0x08015418   0x08015418   0x0000000e   Code   RO         2944    .text               mc_w.l(strlen.o)
    0x08015426   0x08015426   0x0000001c   Code   RO         2946    .text               mc_w.l(strcmp.o)
    0x08015442   0x08015442   0x00000012   Code   RO         2948    .text               mc_w.l(strcpy.o)
    0x08015454   0x08015454   0x0000001e   Code   RO         2950    .text               mc_w.l(strncmp.o)
    0x08015472   0x08015472   0x00000002   PAD
    0x08015474   0x08015474   0x00000044   Code   RO         2952    .text               mc_w.l(strtok.o)
    0x080154b8   0x080154b8   0x00000038   Code   RO         3249    .text               mc_w.l(__0sscanf.o)
    0x080154f0   0x080154f0   0x0000014c   Code   RO         3251    .text               mc_w.l(_scanf_int.o)
    0x0801563c   0x0801563c   0x00000360   Code   RO         3253    .text               mc_w.l(scanf_fp.o)
    0x0801599c   0x0801599c   0x00000070   Code   RO         3257    .text               mc_w.l(strtol.o)
    0x08015a0c   0x08015a0c   0x0000001a   Code   RO         3259    .text               mc_w.l(atoi.o)
    0x08015a26   0x08015a26   0x0000014e   Code   RO         3261    .text               mf_w.l(dadd.o)
    0x08015b74   0x08015b74   0x000000e4   Code   RO         3263    .text               mf_w.l(dmul.o)
    0x08015c58   0x08015c58   0x000000de   Code   RO         3265    .text               mf_w.l(ddiv.o)
    0x08015d36   0x08015d36   0x00000022   Code   RO         3267    .text               mf_w.l(dflti.o)
    0x08015d58   0x08015d58   0x0000003e   Code   RO         3269    .text               mf_w.l(dfixi.o)
    0x08015d96   0x08015d96   0x00000032   Code   RO         3271    .text               mf_w.l(dfixui.o)
    0x08015dc8   0x08015dc8   0x00000026   Code   RO         3273    .text               mf_w.l(f2d.o)
    0x08015dee   0x08015dee   0x00000002   PAD
    0x08015df0   0x08015df0   0x00000030   Code   RO         3275    .text               mf_w.l(cdcmple.o)
    0x08015e20   0x08015e20   0x00000030   Code   RO         3277    .text               mf_w.l(cdrcmple.o)
    0x08015e50   0x08015e50   0x00000038   Code   RO         3279    .text               mf_w.l(d2f.o)
    0x08015e88   0x08015e88   0x0000002c   Code   RO         3329    .text               mc_w.l(uidiv.o)
    0x08015eb4   0x08015eb4   0x00000062   Code   RO         3331    .text               mc_w.l(uldiv.o)
    0x08015f16   0x08015f16   0x0000001e   Code   RO         3333    .text               mc_w.l(llshl.o)
    0x08015f34   0x08015f34   0x00000020   Code   RO         3335    .text               mc_w.l(llushr.o)
    0x08015f54   0x08015f54   0x00000024   Code   RO         3337    .text               mc_w.l(llsshr.o)
    0x08015f78   0x08015f78   0x00000008   Code   RO         3339    .text               mc_w.l(ctype_o.o)
    0x08015f80   0x08015f80   0x00000012   Code   RO         3361    .text               mc_w.l(isspace_o.o)
    0x08015f92   0x08015f92   0x0000001c   Code   RO         3376    .text               mc_w.l(_chval.o)
    0x08015fae   0x08015fae   0x00000002   PAD
    0x08015fb0   0x08015fb0   0x00000028   Code   RO         3378    .text               mc_w.l(scanf_char.o)
    0x08015fd8   0x08015fd8   0x00000040   Code   RO         3380    .text               mc_w.l(_sgetc.o)
    0x08016018   0x08016018   0x0000009e   Code   RO         3382    .text               mc_w.l(_strtoul.o)
    0x080160b6   0x080160b6   0x00000002   PAD
    0x080160b8   0x080160b8   0x0000009c   Code   RO         3384    .text               mc_w.l(strtod.o)
    0x08016154   0x08016154   0x00000000   Code   RO         3386    .text               mc_w.l(iusefp.o)
    0x08016154   0x08016154   0x0000006e   Code   RO         3387    .text               mf_w.l(fepilogue.o)
    0x080161c2   0x080161c2   0x000000ba   Code   RO         3389    .text               mf_w.l(depilogue.o)
    0x0801627c   0x0801627c   0x0000002e   Code   RO         3393    .text               mf_w.l(dscalb.o)
    0x080162aa   0x080162aa   0x00000018   Code   RO         3395    .text               mf_w.l(dfltul.o)
    0x080162c2   0x080162c2   0x00000030   Code   RO         3397    .text               mf_w.l(dfixul.o)
    0x080162f2   0x080162f2   0x00000002   PAD
    0x080162f4   0x080162f4   0x00000024   Code   RO         3399    .text               mc_w.l(init.o)
    0x08016318   0x08016318   0x00000330   Code   RO         3403    .text               mc_w.l(_scanf.o)
    0x08016648   0x08016648   0x000000a2   Code   RO         3405    .text               mf_w.l(dsqrt.o)
    0x080166ea   0x080166ea   0x00000056   Code   RO         3418    .text               mc_w.l(__dczerorl2.o)
    0x08016740   0x08016740   0x0000000e   Code   RO         1055    i.FIFO_Empty        fifo.o
    0x0801674e   0x0801674e   0x00000002   PAD
    0x08016750   0x08016750   0x00000020   Code   RO         3193    i.__0printf         mc_w.l(printfa.o)
    0x08016770   0x08016770   0x00000028   Code   RO         3195    i.__0sprintf        mc_w.l(printfa.o)
    0x08016798   0x08016798   0x00000034   Code   RO         3198    i.__0vsnprintf      mc_w.l(printfa.o)
    0x080167cc   0x080167cc   0x00000030   Code   RO         3295    i.__ARM_fpclassify  m_wm.l(fpclassify.o)
    0x080167fc   0x080167fc   0x00000008   Code   RO         3369    i.__aeabi_errno_addr  mc_w.l(errno.o)
    0x08016804   0x08016804   0x0000005c   Code   RO         3225    i.__free$realloc    mc_w.l(mallocr.o)
    0x08016860   0x08016860   0x00000118   Code   RO         2884    i.__hardfp_ceil     m_wm.l(ceil.o)
    0x08016978   0x08016978   0x00000014   Code   RO         2890    i.__hardfp_fabs     m_wm.l(fabs.o)
    0x0801698c   0x0801698c   0x00000004   PAD
    0x08016990   0x08016990   0x000003c4   Code   RO         2896    i.__hardfp_log      m_wm.l(log.o)
    0x08016d54   0x08016d54   0x00000004   PAD
    0x08016d58   0x08016d58   0x00000c50   Code   RO         2910    i.__hardfp_pow      m_wm.l(pow.o)
    0x080179a8   0x080179a8   0x00000028   Code   RO         2924    i.__hardfp_strtod   m_wm.l(strtod.o)
    0x080179d0   0x080179d0   0x000000f8   Code   RO         3297    i.__kernel_poly     m_wm.l(poly.o)
    0x08017ac8   0x08017ac8   0x00000050   Code   RO         3226    i.__malloc$realloc  mc_w.l(mallocr.o)
    0x08017b18   0x08017b18   0x00000030   Code   RO         3281    i.__mathlib_dbl_divzero  m_wm.l(dunder.o)
    0x08017b48   0x08017b48   0x00000014   Code   RO         3282    i.__mathlib_dbl_infnan  m_wm.l(dunder.o)
    0x08017b5c   0x08017b5c   0x00000014   Code   RO         3283    i.__mathlib_dbl_infnan2  m_wm.l(dunder.o)
    0x08017b70   0x08017b70   0x00000020   Code   RO         3284    i.__mathlib_dbl_invalid  m_wm.l(dunder.o)
    0x08017b90   0x08017b90   0x00000020   Code   RO         3285    i.__mathlib_dbl_overflow  m_wm.l(dunder.o)
    0x08017bb0   0x08017bb0   0x00000020   Code   RO         3287    i.__mathlib_dbl_underflow  m_wm.l(dunder.o)
    0x08017bd0   0x08017bd0   0x0000000e   Code   RO         3412    i.__scatterload_copy  mc_w.l(handlers.o)
    0x08017bde   0x08017bde   0x00000002   Code   RO         3413    i.__scatterload_null  mc_w.l(handlers.o)
    0x08017be0   0x08017be0   0x0000000e   Code   RO         3414    i.__scatterload_zeroinit  mc_w.l(handlers.o)
    0x08017bee   0x08017bee   0x00000002   PAD
    0x08017bf0   0x08017bf0   0x0000000c   Code   RO         3371    i.__set_errno       mc_w.l(errno.o)
    0x08017bfc   0x08017bfc   0x00000184   Code   RO         3200    i._fp_digits        mc_w.l(printfa.o)
    0x08017d80   0x08017d80   0x0000000e   Code   RO         3255    i._is_digit         mc_w.l(scanf_fp.o)
    0x08017d8e   0x08017d8e   0x00000002   PAD
    0x08017d90   0x08017d90   0x000006b4   Code   RO         3201    i._printf_core      mc_w.l(printfa.o)
    0x08018444   0x08018444   0x00000024   Code   RO         3202    i._printf_post_padding  mc_w.l(printfa.o)
    0x08018468   0x08018468   0x0000002e   Code   RO         3203    i._printf_pre_padding  mc_w.l(printfa.o)
    0x08018496   0x08018496   0x00000016   Code   RO         3204    i._snputc           mc_w.l(printfa.o)
    0x080184ac   0x080184ac   0x0000000a   Code   RO         3205    i._sputc            mc_w.l(printfa.o)
    0x080184b6   0x080184b6   0x00000018   Code   RO         2892    i.fabs              m_wm.l(fabs.o)
    0x080184ce   0x080184ce   0x00000002   PAD
    0x080184d0   0x080184d0   0x00000050   Code   RO         3227    i.internal_alloc    mc_w.l(mallocr.o)
    0x08018520   0x08018520   0x0000006c   Code   RO         3228    i.realloc           mc_w.l(mallocr.o)
    0x0801858c   0x0801858c   0x0000006e   Code   RO         3302    i.sqrt              m_wm.l(sqrt.o)
    0x080185fa   0x080185fa   0x00000002   PAD
    0x080185fc   0x080185fc   0x00000038   Data   RO          470    .constdata          api_subdevices.o
    0x08018634   0x08018634   0x00000104   Data   RO          705    .constdata          dev_main.o
    0x08018738   0x08018738   0x00000058   Data   RO          734    .constdata          dev_net.o
    0x08018790   0x08018790   0x00000058   Data   RO          753    .constdata          dev_power.o
    0x080187e8   0x080187e8   0x00000058   Data   RO          772    .constdata          dev_storage0.o
    0x08018840   0x08018840   0x00000058   Data   RO          791    .constdata          dev_switch.o
    0x08018898   0x08018898   0x00000038   Data   RO          840    .constdata          api_fan.o
    0x080188d0   0x080188d0   0x00000030   Data   RO          935    .constdata          api_utc.o
    0x08018900   0x08018900   0x0000006c   Data   RO          957    .constdata          tools.o
    0x0801896c   0x0801896c   0x0000000e   Data   RO         1199    .constdata          log.o
    0x0801897a   0x0801897a   0x00000002   PAD
    0x0801897c   0x0801897c   0x00000082   Data   RO         1454    .constdata          msghndlr.o
    0x080189fe   0x080189fe   0x00000002   PAD
    0x08018a00   0x08018a00   0x00000230   Data   RO         1491    .constdata          app.o
    0x08018c30   0x08018c30   0x00000030   Data   RO         1559    .constdata          chassis.o
    0x08018c60   0x08018c60   0x00000060   Data   RO         1580    .constdata          oem.o
    0x08018cc0   0x08018cc0   0x00000110   Data   RO         1609    .constdata          sensorevent.o
    0x08018dd0   0x08018dd0   0x00000066   Data   RO         1639    .constdata          sensor.o
    0x08018e36   0x08018e36   0x00000002   PAD
    0x08018e38   0x08018e38   0x000000e0   Data   RO         1682    .constdata          storage.o
    0x08018f18   0x08018f18   0x00000014   Data   RO         1704    .constdata          sdr.o
    0x08018f2c   0x08018f2c   0x00000003   Data   RO         1738    .constdata          ipmdevice.o
    0x08018f2f   0x08018f2f   0x00000001   PAD
    0x08018f30   0x08018f30   0x00000010   Data   RO         1769    .constdata          bridge.o
    0x08018f40   0x08018f40   0x00000030   Data   RO         1888    .constdata          bsp_capture.o
    0x08018f70   0x08018f70   0x00000028   Data   RO         2011    .constdata          bsp_uart3.o
    0x08018f98   0x08018f98   0x00000028   Data   RO         2038    .constdata          bsp_usart0.o
    0x08018fc0   0x08018fc0   0x00000028   Data   RO         2079    .constdata          bsp_usart1.o
    0x08018fe8   0x08018fe8   0x00000050   Data   RO         2102    .constdata          bsp_gpio.o
    0x08019038   0x08019038   0x000000e6   Data   RO         2796    .constdata          shell.o
    0x0801911e   0x0801911e   0x00000002   PAD
    0x08019120   0x08019120   0x00000038   Data   RO         2899    .constdata          m_wm.l(log.o)
    0x08019158   0x08019158   0x00000088   Data   RO         2913    .constdata          m_wm.l(pow.o)
    0x080191e0   0x080191e0   0x00000008   Data   RO         3299    .constdata          m_wm.l(qnan.o)
    0x080191e8   0x080191e8   0x00000081   Data   RO         3340    .constdata          mc_w.l(ctype_o.o)
    0x08019269   0x08019269   0x00000003   PAD
    0x0801926c   0x0801926c   0x00000004   Data   RO         3341    .constdata          mc_w.l(ctype_o.o)
    0x08019270   0x08019270   0x00000105   Data   RO          184    .conststring        main.o
    0x08019375   0x08019375   0x00000003   PAD
    0x08019378   0x08019378   0x00000060   Data   RO          471    .conststring        api_subdevices.o
    0x080193d8   0x080193d8   0x00000035   Data   RO          706    .conststring        dev_main.o
    0x0801940d   0x0801940d   0x00000003   PAD
    0x08019410   0x08019410   0x00000030   Data   RO          936    .conststring        api_utc.o
    0x08019440   0x08019440   0x000000be   Data   RO          958    .conststring        tools.o
    0x080194fe   0x080194fe   0x00000002   PAD
    0x08019500   0x08019500   0x0000000d   Data   RO         1200    .conststring        log.o
    0x0801950d   0x0801950d   0x00000003   PAD
    0x08019510   0x08019510   0x000000de   Data   RO         1640    .conststring        sensor.o
    0x080195ee   0x080195ee   0x00000002   PAD
    0x080195f0   0x080195f0   0x00000159   Data   RO         2797    .conststring        shell.o
    0x08019749   0x08019749   0x00000003   PAD
    0x0801974c   0x0801974c   0x00000020   Data   RO         3410    Region$$Table       anon$$obj.o
    0x0801976c   0x0801976c   0x00000050   Data   RO          960    shellCommand        tools.o
    0x080197bc   0x080197bc   0x00000010   Data   RO         1202    shellCommand        log.o
    0x080197cc   0x080197cc   0x00000120   Data   RO         2799    shellCommand        shell.o


    Execution Region RW_IRAM1 (Exec base: 0x20000000, Load base: 0x080198ec, Size: 0x0000b480, Max: 0x00018000, ABSOLUTE, COMPRESSED[0x000001f4])

    Exec Addr    Load Addr    Size         Type   Attr      Idx    E Section Name        Object

    0x20000000   COMPRESSED   0x00000028   Data   RW          185    .data               main.o
    0x20000028   COMPRESSED   0x00000040   Data   RW          472    .data               api_subdevices.o
    0x20000068   COMPRESSED   0x00000004   Data   RW          810    .data               api_adc.o
    0x2000006c   COMPRESSED   0x00000044   Data   RW          959    .data               tools.o
    0x200000b0   COMPRESSED   0x00000018   Data   RW         1118    .data               api_sensor.o
    0x200000c8   COMPRESSED   0x00000018   Data   RW         1158    .data               cjson.o
    0x200000e0   COMPRESSED   0x00000018   Data   RW         1201    .data               log.o
    0x200000f8   COMPRESSED   0x00000010   Data   RW         1455    .data               msghndlr.o
    0x20000108   COMPRESSED   0x00000240   Data   RW         1705    .data               sdr.o
    0x20000348   COMPRESSED   0x00000014   Data   RW         1739    .data               ipmdevice.o
    0x2000035c   COMPRESSED   0x00000008   Data   RW         1915    .data               bsp_i2c.o
    0x20000364   COMPRESSED   0x00000034   Data   RW         2012    .data               bsp_uart3.o
    0x20000398   COMPRESSED   0x00000039   Data   RW         2039    .data               bsp_usart0.o
    0x200003d1   COMPRESSED   0x00000003   PAD
    0x200003d4   COMPRESSED   0x00000039   Data   RW         2080    .data               bsp_usart1.o
    0x2000040d   COMPRESSED   0x00000003   PAD
    0x20000410   COMPRESSED   0x00000008   Data   RW         2103    .data               bsp_gpio.o
    0x20000418   COMPRESSED   0x00000004   Data   RW         2148    .data               bsp_timer.o
    0x2000041c   COMPRESSED   0x00000004   Data   RW         2193    .data               system_gd32f30x.o
    0x20000420   COMPRESSED   0x0000003c   Data   RW         2670    .data               tasks.o
    0x2000045c   COMPRESSED   0x00000014   Data   RW         2709    .data               timers.o
    0x20000470   COMPRESSED   0x00000018   Data   RW         2735    .data               heap_4.o
    0x20000488   COMPRESSED   0x0000000c   Data   RW         2758    .data               port.o
    0x20000494   COMPRESSED   0x00000054   Data   RW         2798    .data               shell.o
    0x200004e8   COMPRESSED   0x00000004   Data   RW         2936    .data               mc_w.l(rand.o)
    0x200004ec   COMPRESSED   0x00000004   Data   RW         2953    .data               mc_w.l(strtok.o)
    0x200004f0   COMPRESSED   0x00000004   Data   RW         3328    .data               mc_w.l(stdout.o)
    0x200004f4   COMPRESSED   0x00000004   Data   RW         3367    .data               mc_w.l(mvars.o)
    0x200004f8   COMPRESSED   0x00000004   Data   RW         3368    .data               mc_w.l(mvars.o)
    0x200004fc   COMPRESSED   0x00000004   Data   RW         3372    .data               mc_w.l(errno.o)
    0x20000500        -       0x00000054   Zero   RW          469    .bss                api_subdevices.o
    0x20000554        -       0x00000030   Zero   RW          704    .bss                dev_main.o
    0x20000584        -       0x00000018   Zero   RW          733    .bss                dev_net.o
    0x2000059c        -       0x00000018   Zero   RW          752    .bss                dev_power.o
    0x200005b4        -       0x00000018   Zero   RW          771    .bss                dev_storage0.o
    0x200005cc        -       0x00000018   Zero   RW          790    .bss                dev_switch.o
    0x200005e4        -       0x00000020   Zero   RW          839    .bss                api_fan.o
    0x20000604        -       0x0000000f   Zero   RW         1157    .bss                cjson.o
    0x20000613   COMPRESSED   0x00000001   PAD
    0x20000614        -       0x000011b0   Zero   RW         1453    .bss                msghndlr.o
    0x200017c4        -       0x00000040   Zero   RW         1703    .bss                sdr.o
    0x20001804        -       0x00000030   Zero   RW         1887    .bss                bsp_capture.o
    0x20001834        -       0x0000006f   Zero   RW         1914    .bss                bsp_i2c.o
    0x200018a3        -       0x00000064   Zero   RW         2010    .bss                bsp_uart3.o
    0x20001907        -       0x00000231   Zero   RW         2037    .bss                bsp_usart0.o
    0x20001b38        -       0x00000064   Zero   RW         2078    .bss                bsp_usart1.o
    0x20001b9c        -       0x0000000c   Zero   RW         2171    .bss                bsp_uartcomm.o
    0x20001ba8        -       0x00000078   Zero   RW         2640    .bss                queue.o
    0x20001c20        -       0x000002e4   Zero   RW         2669    .bss                tasks.o
    0x20001f04        -       0x00000028   Zero   RW         2708    .bss                timers.o
    0x20001f2c        -       0x00008c00   Zero   RW         2734    .bss                heap_4.o
    0x2000ab2c        -       0x0000001d   Zero   RW         2795    .bss                shell.o
    0x2000ab49   COMPRESSED   0x00000003   PAD
    0x2000ab4c        -       0x00000134   Zero   RW         2864    .bss                shell_port.o
    0x2000ac80        -       0x00000400   Zero   RW         2540    HEAP                startup_gd32f30x_cl.o
    0x2000b080        -       0x00000400   Zero   RW         2539    STACK               startup_gd32f30x_cl.o


==============================================================================

Image component sizes


      Code (inc. data)   RO Data    RW Data    ZI Data      Debug   Object Name

       896         78          0          4          0       4340   api_adc.o
        68          4          0          0          0       1026   api_cpu.o
       816        116         56          0         32       6621   api_fan.o
       512         10          0         24          0       6178   api_sensor.o
      3276        592        152         64         84      81785   api_subdevices.o
       952        120         96          0          0       3102   api_utc.o
         0          0        560          0          0        897   app.o
      1394        148          0          0          0      16760   appdevice.o
         0          0         16          0          0        788   bridge.o
       212          0          0          0          0       1485   bsp_adc.o
       640         24         48          0         48       5301   bsp_capture.o
       684        168         80          8          0       3090   bsp_gpio.o
      2640        220          0          8        111       7160   bsp_i2c.o
       208          6          0          0          0       2009   bsp_pwm.o
       240         12          0          4          0       1387   bsp_timer.o
        80         22         40         52        100       1466   bsp_uart3.o
       664         10          0          0         12       4702   bsp_uartcomm.o
       444        124         40         57        561       3362   bsp_usart0.o
       136         28         40         57        100       1651   bsp_usart1.o
         0          0         48          0          0        801   chassis.o
       900        256          0          0          0      28665   chassisctrl.o
      1440        340          0          0          0       8539   chassisdevice.o
      9084        198          0         24         15      46155   cjson.o
       192        108        313          0         48       4149   dev_main.o
         0          0         88          0         24        963   dev_net.o
         0          0         88          0         24        987   dev_power.o
         0          0         88          0         24       1021   dev_storage0.o
         0          0         88          0         24       1001   dev_switch.o
         0          0          0          0          0       7948   event_groups.o
       414          0          0          0          0       7304   fifo.o
      1452         22          0          0          0       9457   gd32f30x_adc.o
       128          6          0          0          0       1831   gd32f30x_dbg.o
         0          0          0          0          0       1472   gd32f30x_dma.o
       264         10          0          0          0       2398   gd32f30x_fwdgt.o
       864         12          0          0          0       5220   gd32f30x_gpio.o
       972         28          0          0          0       7968   gd32f30x_i2c.o
        38          0          0          0          0      19679   gd32f30x_it.o
       324         20          0          0          0       2033   gd32f30x_misc.o
         2          0          0          0          0        508   gd32f30x_platform.o
      1748         72          0          0          0       8508   gd32f30x_rcu.o
      3660         42          0          0          0      18935   gd32f30x_timer.o
      1180         16          0          0          0      11116   gd32f30x_usart.o
       672         82          0         24      35840       3440   heap_4.o
         0          0          0          0          0        796   ipmbmsghndlr.o
       616        164          3         20          0       6035   ipmdevice.o
       116          0          0          0          0       1666   ipmi_common.o
       148          0          0          0          0       1994   list.o
       840        496         43         24          0       2867   log.o
      1412        400        261         40          0      93547   main.o
      2292        432        130         16       4528      19348   msghndlr.o
       420          8         96          0          0       4168   oem.o
       886        102          0         12          0       8035   port.o
      4048         56          0          0        120      20926   queue.o
      5244        126         20        576         64      20777   sdr.o
     10212        678        324          0          0      35498   sensor.o
      3220        594          0          0          0      14177   sensor_helpers.o
         0          0        272          0          0       1625   sensorevent.o
       126          0          0          0          0       2161   serial.o
      1140        222          0          0          0      17356   serialifc.o
      4980        138        863         84         29      26565   shell.o
       848         14          0          0          0       3776   shell_ext.o
        80         14          0          0        308       1669   shell_port.o
        36          8        336          0       2048        928   startup_gd32f30x_cl.o
         0          0        224          0          0        845   storage.o
       760         58          0          4          0       2749   system_gd32f30x.o
       128         16          0          0          0      42750   systick.o
      6920        592          0         60        740      34154   tasks.o
      1612        110          0         20         40      11911   timers.o
      3288        892        378         68          0      39296   tools.o

    ----------------------------------------------------------------------
     86576       8014       4848       1256      44928     768827   Object Totals
         0          0         32          0          0          0   (incl. Generated)
         8          0         25          6          4          0   (incl. Padding)

    ----------------------------------------------------------------------

      Code (inc. data)   RO Data    RW Data    ZI Data      Debug   Library Member Name

       280         28          0          0          0        156   ceil.o
       184         44          0          0          0        744   dunder.o
        44          0          0          0          0        248   fabs.o
        48          0          0          0          0        124   fpclassify.o
       964         92         56          0          0        316   log.o
       248          0          0          0          0        152   poly.o
      3152        296        136          0          0        352   pow.o
         0          0          8          0          0          0   qnan.o
       110          0          0          0          0        148   sqrt.o
        40         10          0          0          0        128   strtod.o
        56          8          0          0          0         84   __0sscanf.o
        86          0          0          0          0          0   __dczerorl2.o
        28          0          0          0          0         68   _chval.o
       816          6          0          0          0        112   _scanf.o
       332          0          0          0          0         96   _scanf_int.o
        64          0          0          0          0         84   _sgetc.o
       158          0          0          0          0         92   _strtoul.o
        26          0          0          0          0         80   atoi.o
         8          4        133          0          0         68   ctype_o.o
         0          0          0          0          0          0   entry.o
         0          0          0          0          0          0   entry10a.o
         0          0          0          0          0          0   entry11a.o
         4          0          0          0          0          0   entry12b.o
         8          4          0          0          0          0   entry2.o
         4          0          0          0          0          0   entry5.o
         0          0          0          0          0          0   entry7b.o
         0          0          0          0          0          0   entry8b.o
         8          4          0          0          0          0   entry9a.o
        20         10          0          4          0        136   errno.o
        30          0          0          0          0          0   handlers.o
        36          8          0          0          0         68   init.o
        18          0          0          0          0         76   isspace_o.o
         0          0          0          0          0          0   iusefp.o
        30          0          0          0          0         68   llshl.o
        36          0          0          0          0         68   llsshr.o
        32          0          0          0          0         68   llushr.o
       360         30          0          0          0        356   mallocr.o
        36          0          0          0          0         68   memcpya.o
        36          0          0          0          0        108   memseta.o
         0          0          0          8          0          0   mvars.o
      2342        102          0          0          0        764   printfa.o
        36         10          0          4          0        136   rand.o
        40          8          0          0          0         84   scanf_char.o
       878         12          0          0          0        216   scanf_fp.o
         0          0          0          4          0          0   stdout.o
        24          0          0          0          0         68   strcat.o
        28          0          0          0          0         76   strcmp.o
        18          0          0          0          0         68   strcpy.o
        14          0          0          0          0         68   strlen.o
        30          0          0          0          0         80   strncmp.o
       156         12          0          0          0        120   strtod.o
        68          6          0          4          0         80   strtok.o
       112          0          0          0          0         88   strtol.o
        12          0          0          0          0         68   tolower.o
        44          0          0          0          0         80   uidiv.o
        98          0          0          0          0         92   uldiv.o
        48          0          0          0          0         68   cdcmple.o
        48          0          0          0          0         68   cdrcmple.o
        56          0          0          0          0         88   d2f.o
       334          0          0          0          0        148   dadd.o
       222          0          0          0          0        100   ddiv.o
       186          0          0          0          0        176   depilogue.o
        62          0          0          0          0         80   dfixi.o
        50          0          0          0          0         76   dfixui.o
        48          0          0          0          0         68   dfixul.o
        34          0          0          0          0         76   dflti.o
        24          0          0          0          0         76   dfltul.o
       228          0          0          0          0         96   dmul.o
        46          0          0          0          0         80   dscalb.o
       162          0          0          0          0        100   dsqrt.o
        38          0          0          0          0         68   f2d.o
       110          0          0          0          0        168   fepilogue.o

    ----------------------------------------------------------------------
     12924        698        336         24          0       7692   Library Totals
        26          4          3          0          0          0   (incl. Padding)

    ----------------------------------------------------------------------

      Code (inc. data)   RO Data    RW Data    ZI Data      Debug   Library Name

      5070        470        200          0          0       2368   m_wm.l
      6132        224        133         24          0       3788   mc_w.l
      1696          0          0          0          0       1536   mf_w.l

    ----------------------------------------------------------------------
     12924        698        336         24          0       7692   Library Totals

    ----------------------------------------------------------------------

==============================================================================


      Code (inc. data)   RO Data    RW Data    ZI Data      Debug   

     99500       8712       5184       1280      44928     759287   Grand Totals
     99500       8712       5184        500      44928     759287   ELF Image Totals (compressed)
     99500       8712       5184        500          0          0   ROM Totals

==============================================================================

    Total RO  Size (Code + RO Data)               104684 ( 102.23kB)
    Total RW  Size (RW Data + ZI Data)             46208 (  45.13kB)
    Total ROM Size (Code + RO Data + RW Data)     105184 ( 102.72kB)

==============================================================================

